Component: ARM Compiler 5.06 update 5 (build 528) Tool: armlink [4d35e2]

==============================================================================

Section Cross References

    main.o(i.ATCMD_waitOK) refers to strlen.o(.text) for strlen
    main.o(i.ATCMD_waitOK) refers to usart_utils.o(i.usart_write) for usart_write
    main.o(i.ATCMD_waitOK) refers to main.o(i.wait_OK) for wait_OK
    main.o(i.ATDELO_cmd) refers to rt_memcpy_v6.o(.text) for __aeabi_memcpy
    main.o(i.ATDELO_cmd) refers to config_utils.o(i.save_config) for save_config
    main.o(i.ATDELO_cmd) refers to usart_utils.o(i.usart_write) for usart_write
    main.o(i.ATDELO_cmd) refers to main.o(.constdata) for l_default_nbMCFG
    main.o(i.ATDELO_cmd) refers to main.o(.bss) for l_nbModuConfig
    main.o(i.ATIMEIBD_cmd) refers to _printf_percent.o(.ARM.Collect$$_printf_percent$$00000000) for _printf_percent
    main.o(i.ATIMEIBD_cmd) refers to _printf_d.o(.ARM.Collect$$_printf_percent$$00000009) for _printf_d
    main.o(i.ATIMEIBD_cmd) refers to _printf_s.o(.ARM.Collect$$_printf_percent$$00000014) for _printf_s
    main.o(i.ATIMEIBD_cmd) refers to _printf_dec.o(.text) for _printf_int_dec
    main.o(i.ATIMEIBD_cmd) refers to _printf_str.o(.text) for _printf_str
    main.o(i.ATIMEIBD_cmd) refers to rt_memclr_w.o(.text) for __aeabi_memclr4
    main.o(i.ATIMEIBD_cmd) refers to usart_utils.o(i.usart_write) for usart_write
    main.o(i.ATIMEIBD_cmd) refers to rt_memcpy_v6.o(.text) for __aeabi_memcpy
    main.o(i.ATIMEIBD_cmd) refers to strcmpv7m.o(.text) for strcmp
    main.o(i.ATIMEIBD_cmd) refers to __2snprintf.o(.text) for __2snprintf
    main.o(i.ATIMEIBD_cmd) refers to strlen.o(.text) for strlen
    main.o(i.ATIMEIBD_cmd) refers to main.o(.bss) for l_IMEI
    main.o(i.ATIMEIBD_cmd) refers to main.o(.data) for l_nband
    main.o(i.ATIPPORT_cmd) refers to _printf_percent.o(.ARM.Collect$$_printf_percent$$00000000) for _printf_percent
    main.o(i.ATIPPORT_cmd) refers to _printf_d.o(.ARM.Collect$$_printf_percent$$00000009) for _printf_d
    main.o(i.ATIPPORT_cmd) refers to _printf_dec.o(.text) for _printf_int_dec
    main.o(i.ATIPPORT_cmd) refers to rt_memclr_w.o(.text) for __aeabi_memclr4
    main.o(i.ATIPPORT_cmd) refers to usart_utils.o(i.usart_write) for usart_write
    main.o(i.ATIPPORT_cmd) refers to rt_memcpy_v6.o(.text) for __aeabi_memcpy
    main.o(i.ATIPPORT_cmd) refers to strcmpv7m.o(.text) for strcmp
    main.o(i.ATIPPORT_cmd) refers to __2snprintf.o(.text) for __2snprintf
    main.o(i.ATIPPORT_cmd) refers to strlen.o(.text) for strlen
    main.o(i.ATIPPORT_cmd) refers to memcmp.o(.text) for memcmp
    main.o(i.ATIPPORT_cmd) refers to utils.o(i.checkConfigIPORT) for checkConfigIPORT
    main.o(i.ATIPPORT_cmd) refers to main.o(.bss) for l_nbModuConfig
    main.o(i.ATRS232_cmd) refers to _printf_percent.o(.ARM.Collect$$_printf_percent$$00000000) for _printf_percent
    main.o(i.ATRS232_cmd) refers to _printf_d.o(.ARM.Collect$$_printf_percent$$00000009) for _printf_d
    main.o(i.ATRS232_cmd) refers to _printf_dec.o(.text) for _printf_int_dec
    main.o(i.ATRS232_cmd) refers to rt_memclr_w.o(.text) for __aeabi_memclr4
    main.o(i.ATRS232_cmd) refers to usart_utils.o(i.usart_write) for usart_write
    main.o(i.ATRS232_cmd) refers to rt_memcpy_v6.o(.text) for __aeabi_memcpy
    main.o(i.ATRS232_cmd) refers to strcmpv7m.o(.text) for strcmp
    main.o(i.ATRS232_cmd) refers to __2snprintf.o(.text) for __2snprintf
    main.o(i.ATRS232_cmd) refers to strlen.o(.text) for strlen
    main.o(i.ATRS232_cmd) refers to memcmp.o(.text) for memcmp
    main.o(i.ATRS232_cmd) refers to utils.o(i.checkConfigRS232) for checkConfigRS232
    main.o(i.ATRS232_cmd) refers to main.o(.bss) for l_nbModuConfig
    main.o(i.ATSAVE_cmd) refers to config_utils.o(i.save_config) for save_config
    main.o(i.ATSAVE_cmd) refers to usart_utils.o(i.usart_write) for usart_write
    main.o(i.ATSAVE_cmd) refers to main.o(.bss) for l_nbModuConfig
    main.o(i.ATSEMO_cmd) refers to _printf_percent.o(.ARM.Collect$$_printf_percent$$00000000) for _printf_percent
    main.o(i.ATSEMO_cmd) refers to _printf_d.o(.ARM.Collect$$_printf_percent$$00000009) for _printf_d
    main.o(i.ATSEMO_cmd) refers to _printf_dec.o(.text) for _printf_int_dec
    main.o(i.ATSEMO_cmd) refers to _scanf_int.o(.text) for _scanf_int
    main.o(i.ATSEMO_cmd) refers to rt_memclr_w.o(.text) for __aeabi_memclr4
    main.o(i.ATSEMO_cmd) refers to usart_utils.o(i.usart_write) for usart_write
    main.o(i.ATSEMO_cmd) refers to rt_memcpy_v6.o(.text) for __aeabi_memcpy
    main.o(i.ATSEMO_cmd) refers to strcmpv7m.o(.text) for strcmp
    main.o(i.ATSEMO_cmd) refers to __2snprintf.o(.text) for __2snprintf
    main.o(i.ATSEMO_cmd) refers to strlen.o(.text) for strlen
    main.o(i.ATSEMO_cmd) refers to memcmp.o(.text) for memcmp
    main.o(i.ATSEMO_cmd) refers to __0sscanf.o(.text) for __0sscanf
    main.o(i.ATSEMO_cmd) refers to main.o(.bss) for l_nbModuConfig
    main.o(i.EXTI15_10_IRQHandler) refers to stm32f10x_exti.o(i.EXTI_GetITStatus) for EXTI_GetITStatus
    main.o(i.EXTI15_10_IRQHandler) refers to config_utils.o(i.save_config) for save_config
    main.o(i.EXTI15_10_IRQHandler) refers to stm32f10x_gpio.o(i.GPIO_ResetBits) for GPIO_ResetBits
    main.o(i.EXTI15_10_IRQHandler) refers to time_utils.o(i.delay_ms) for delay_ms
    main.o(i.EXTI15_10_IRQHandler) refers to stm32f10x_gpio.o(i.GPIO_SetBits) for GPIO_SetBits
    main.o(i.EXTI15_10_IRQHandler) refers to stm32f10x_exti.o(i.EXTI_ClearITPendingBit) for EXTI_ClearITPendingBit
    main.o(i.EXTI15_10_IRQHandler) refers to main.o(.constdata) for l_default_nbMCFG
    main.o(i.GPIO_Configuration) refers to stm32f10x_gpio.o(i.GPIO_Init) for GPIO_Init
    main.o(i.HOSTWAKE_Configuration) refers to stm32f10x_gpio.o(i.GPIO_EXTILineConfig) for GPIO_EXTILineConfig
    main.o(i.HOSTWAKE_Configuration) refers to stm32f10x_exti.o(i.EXTI_Init) for EXTI_Init
    main.o(i.HOSTWAKE_Configuration) refers to misc.o(i.NVIC_Init) for NVIC_Init
    main.o(i.RCC_Configuration) refers to stm32f10x_rcc.o(i.RCC_APB2PeriphClockCmd) for RCC_APB2PeriphClockCmd
    main.o(i.RCC_Configuration) refers to stm32f10x_rcc.o(i.RCC_APB1PeriphClockCmd) for RCC_APB1PeriphClockCmd
    main.o(i.RST_Configuration) refers to stm32f10x_gpio.o(i.GPIO_EXTILineConfig) for GPIO_EXTILineConfig
    main.o(i.RST_Configuration) refers to stm32f10x_exti.o(i.EXTI_Init) for EXTI_Init
    main.o(i.RST_Configuration) refers to misc.o(i.NVIC_Init) for NVIC_Init
    main.o(i.USERCOM_direct_BC95COM) refers to time_utils.o(i.IWDG_Feed) for IWDG_Feed
    main.o(i.USERCOM_direct_BC95COM) refers to stm32f10x_usart.o(i.USART_GetFlagStatus) for USART_GetFlagStatus
    main.o(i.USERCOM_direct_BC95COM) refers to stm32f10x_usart.o(i.USART_ReceiveData) for USART_ReceiveData
    main.o(i.USERCOM_direct_BC95COM) refers to stm32f10x_usart.o(i.USART_SendData) for USART_SendData
    main.o(i.bc95_cfgBaudRate) refers to _printf_percent.o(.ARM.Collect$$_printf_percent$$00000000) for _printf_percent
    main.o(i.bc95_cfgBaudRate) refers to _printf_d.o(.ARM.Collect$$_printf_percent$$00000009) for _printf_d
    main.o(i.bc95_cfgBaudRate) refers to _printf_dec.o(.text) for _printf_int_dec
    main.o(i.bc95_cfgBaudRate) refers to rt_memclr_w.o(.text) for __aeabi_memclr4
    main.o(i.bc95_cfgBaudRate) refers to usart_utils.o(i.usart_init) for usart_init
    main.o(i.bc95_cfgBaudRate) refers to __2snprintf.o(.text) for __2snprintf
    main.o(i.bc95_cfgBaudRate) refers to main.o(i.ATCMD_waitOK) for ATCMD_waitOK
    main.o(i.coap_msgSend) refers to _printf_pad.o(.text) for _printf_pre_padding
    main.o(i.coap_msgSend) refers to _printf_percent.o(.ARM.Collect$$_printf_percent$$00000000) for _printf_percent
    main.o(i.coap_msgSend) refers to _printf_d.o(.ARM.Collect$$_printf_percent$$00000009) for _printf_d
    main.o(i.coap_msgSend) refers to _printf_x.o(.ARM.Collect$$_printf_percent$$0000000C) for _printf_x
    main.o(i.coap_msgSend) refers to _printf_dec.o(.text) for _printf_int_dec
    main.o(i.coap_msgSend) refers to _printf_hex_int.o(.text) for _printf_longlong_hex
    main.o(i.coap_msgSend) refers to rt_memclr.o(.text) for __aeabi_memclr
    main.o(i.coap_msgSend) refers to __2snprintf.o(.text) for __2snprintf
    main.o(i.coap_msgSend) refers to strlen.o(.text) for strlen
    main.o(i.coap_msgSend) refers to usart_utils.o(i.usart_write) for usart_write
    main.o(i.coap_msgSend) refers to main.o(.bss) for l_sendBuf
    main.o(i.config_bc95) refers to _printf_percent.o(.ARM.Collect$$_printf_percent$$00000000) for _printf_percent
    main.o(i.config_bc95) refers to _printf_d.o(.ARM.Collect$$_printf_percent$$00000009) for _printf_d
    main.o(i.config_bc95) refers to _printf_dec.o(.text) for _printf_int_dec
    main.o(i.config_bc95) refers to rt_memclr_w.o(.text) for __aeabi_memclr4
    main.o(i.config_bc95) refers to main.o(i.ATCMD_waitOK) for ATCMD_waitOK
    main.o(i.config_bc95) refers to main.o(i.bc95_cfgBaudRate) for bc95_cfgBaudRate
    main.o(i.config_bc95) refers to main.o(i.get_IMEI) for get_IMEI
    main.o(i.config_bc95) refers to main.o(i.get_NBAND) for get_NBAND
    main.o(i.config_bc95) refers to __2snprintf.o(.text) for __2snprintf
    main.o(i.config_bc95) refers to usart_utils.o(i.usart_write) for usart_write
    main.o(i.config_bc95) refers to main.o(.bss) for l_nbModuConfig
    main.o(i.config_bc95) refers to main.o(.data) for l_nband
    main.o(i.get_IMEI) refers to usart_utils.o(i.usart_write) for usart_write
    main.o(i.get_IMEI) refers to usart_utils.o(i.usart_read) for usart_read
    main.o(i.get_IMEI) refers to utils.o(i.memmem) for memmem
    main.o(i.get_IMEI) refers to rt_memcpy_v6.o(.text) for __aeabi_memcpy
    main.o(i.get_IMEI) refers to main.o(.bss) for buf
    main.o(i.get_NBAND) refers to rt_memclr_w.o(.text) for __aeabi_memclr4
    main.o(i.get_NBAND) refers to usart_utils.o(i.usart_write) for usart_write
    main.o(i.get_NBAND) refers to usart_utils.o(i.usart_read) for usart_read
    main.o(i.get_NBAND) refers to utils.o(i.memmem) for memmem
    main.o(i.ghConfig) refers to rt_memclr.o(.text) for __aeabi_memclr
    main.o(i.ghConfig) refers to time_utils.o(i.IWDG_Feed) for IWDG_Feed
    main.o(i.ghConfig) refers to usart_utils.o(i.usart_read) for usart_read
    main.o(i.ghConfig) refers to utils.o(i.memmem) for memmem
    main.o(i.ghConfig) refers to strlen.o(.text) for strlen
    main.o(i.ghConfig) refers to usart_utils.o(i.usart_write) for usart_write
    main.o(i.ghConfig) refers to stm32f10x_usart.o(i.USART_GetFlagStatus) for USART_GetFlagStatus
    main.o(i.ghConfig) refers to stm32f10x_usart.o(i.USART_ReceiveData) for USART_ReceiveData
    main.o(i.ghConfig) refers to main.o(.bss) for l_uartBuf
    main.o(i.ghConfig) refers to main.o(.data) for l_cnt
    main.o(i.load_config) refers to config_utils.o(i.read_config) for read_config
    main.o(i.load_config) refers to rt_memcpy_v6.o(.text) for __aeabi_memcpy
    main.o(i.load_config) refers to main.o(.bss) for l_nbModuConfig
    main.o(i.load_config) refers to main.o(.constdata) for l_default_nbMCFG
    main.o(i.main) refers to thread.o(i.rt_thread_create) for rt_thread_create
    main.o(i.main) refers to thread.o(i.rt_thread_startup) for rt_thread_startup
    main.o(i.main) refers to thread.o(i.rt_thread_delay) for rt_thread_delay
    main.o(i.main) refers to main.o(i.main_entry) for main_entry
    main.o(i.main_entry) refers to main.o(i.RCC_Configuration) for RCC_Configuration
    main.o(i.main_entry) refers to main.o(i.GPIO_Configuration) for GPIO_Configuration
    main.o(i.main_entry) refers to misc.o(i.NVIC_PriorityGroupConfig) for NVIC_PriorityGroupConfig
    main.o(i.main_entry) refers to time_utils.o(i.tick_ms_init) for tick_ms_init
    main.o(i.main_entry) refers to main.o(i.RST_Configuration) for RST_Configuration
    main.o(i.main_entry) refers to config_utils.o(i.config_init) for config_init
    main.o(i.main_entry) refers to time_utils.o(i.IWDG_Init) for IWDG_Init
    main.o(i.main_entry) refers to stm32f10x_gpio.o(i.GPIO_ResetBits) for GPIO_ResetBits
    main.o(i.main_entry) refers to time_utils.o(i.delay_ms) for delay_ms
    main.o(i.main_entry) refers to stm32f10x_gpio.o(i.GPIO_SetBits) for GPIO_SetBits
    main.o(i.main_entry) refers to main.o(i.load_config) for load_config
    main.o(i.main_entry) refers to usart_utils.o(i.usart_init) for usart_init
    main.o(i.main_entry) refers to main.o(i.config_bc95) for config_bc95
    main.o(i.main_entry) refers to main.o(i.start_mode) for start_mode
    main.o(i.main_entry) refers to main.o(i.USERCOM_direct_BC95COM) for USERCOM_direct_BC95COM
    main.o(i.main_entry) refers to main.o(i.ghConfig) for ghConfig
    main.o(i.main_entry) refers to rt_memclr.o(.text) for __aeabi_memclr
    main.o(i.main_entry) refers to time_utils.o(i.IWDG_Feed) for IWDG_Feed
    main.o(i.main_entry) refers to usart_utils.o(i.usart_read) for usart_read
    main.o(i.main_entry) refers to main.o(i.coap_msgSend) for coap_msgSend
    main.o(i.main_entry) refers to main.o(i.udp_msgSend) for udp_msgSend
    main.o(i.main_entry) refers to stm32f10x_usart.o(i.USART_GetFlagStatus) for USART_GetFlagStatus
    main.o(i.main_entry) refers to stm32f10x_usart.o(i.USART_ReceiveData) for USART_ReceiveData
    main.o(i.main_entry) refers to main.o(.bss) for l_nbModuConfig
    main.o(i.main_entry) refers to main.o(.data) for l_cnt
    main.o(i.start_mode) refers to rt_memclr.o(.text) for __aeabi_memclr
    main.o(i.start_mode) refers to time_utils.o(i.IWDG_Feed) for IWDG_Feed
    main.o(i.start_mode) refers to stm32f10x_usart.o(i.USART_GetFlagStatus) for USART_GetFlagStatus
    main.o(i.start_mode) refers to time_utils.o(i.get_timestamp) for get_timestamp
    main.o(i.start_mode) refers to stm32f10x_usart.o(i.USART_ReceiveData) for USART_ReceiveData
    main.o(i.start_mode) refers to utils.o(i.memmem) for memmem
    main.o(i.start_mode) refers to usart_utils.o(i.usart_write) for usart_write
    main.o(i.start_mode) refers to main.o(i.coap_msgSend) for coap_msgSend
    main.o(i.start_mode) refers to main.o(i.udp_msgSend) for udp_msgSend
    main.o(i.start_mode) refers to main.o(.bss) for l_uartBuf
    main.o(i.start_mode) refers to main.o(.data) for l_cnt
    main.o(i.udp_msgSend) refers to _printf_percent.o(.ARM.Collect$$_printf_percent$$00000000) for _printf_percent
    main.o(i.udp_msgSend) refers to _printf_d.o(.ARM.Collect$$_printf_percent$$00000009) for _printf_d
    main.o(i.udp_msgSend) refers to _printf_dec.o(.text) for _printf_int_dec
    main.o(i.udp_msgSend) refers to _printf_pad.o(.text) for _printf_pre_padding
    main.o(i.udp_msgSend) refers to _printf_x.o(.ARM.Collect$$_printf_percent$$0000000C) for _printf_x
    main.o(i.udp_msgSend) refers to _printf_hex_int.o(.text) for _printf_longlong_hex
    main.o(i.udp_msgSend) refers to rt_memclr.o(.text) for __aeabi_memclr
    main.o(i.udp_msgSend) refers to __2snprintf.o(.text) for __2snprintf
    main.o(i.udp_msgSend) refers to strlen.o(.text) for strlen
    main.o(i.udp_msgSend) refers to usart_utils.o(i.usart_write) for usart_write
    main.o(i.udp_msgSend) refers to main.o(.bss) for l_sendBuf
    main.o(i.wait_OK) refers to rt_memclr_w.o(.text) for __aeabi_memclr4
    main.o(i.wait_OK) refers to usart_utils.o(i.usart_read) for usart_read
    main.o(i.wait_OK) refers to utils.o(i.memmem) for memmem
    main.o(.data) refers to main.o(.conststring) for .conststring
    main.o(.data) refers to main.o(i.ATRS232_cmd) for ATRS232_cmd
    main.o(.data) refers to main.o(i.ATIPPORT_cmd) for ATIPPORT_cmd
    main.o(.data) refers to main.o(i.ATIMEIBD_cmd) for ATIMEIBD_cmd
    main.o(.data) refers to main.o(i.ATSEMO_cmd) for ATSEMO_cmd
    main.o(.data) refers to main.o(i.ATSAVE_cmd) for ATSAVE_cmd
    main.o(.data) refers to main.o(i.ATDELO_cmd) for ATDELO_cmd
    config_utils.o(i.config_init) refers to see_i2c.o(i.SEE_i2c_init) for SEE_i2c_init
    config_utils.o(i.read_config) refers to see_i2c.o(i.SEE_i2c_read) for SEE_i2c_read
    config_utils.o(i.read_config) refers to crc32.o(i.get_crc32) for get_crc32
    config_utils.o(i.read_config) refers to rt_memcpy_v6.o(.text) for __aeabi_memcpy
    config_utils.o(i.save_config) refers to rt_memcpy_v6.o(.text) for __aeabi_memcpy
    config_utils.o(i.save_config) refers to crc32.o(i.get_crc32) for get_crc32
    config_utils.o(i.save_config) refers to see_i2c.o(i.SEE_i2c_write) for SEE_i2c_write
    crc32.o(i.get_crc32) refers to crc32.o(i.init_crc32_tab) for init_crc32_tab
    crc32.o(i.get_crc32) refers to crc32.o(.bss) for crc_tab32
    crc32.o(i.init_crc32_tab) refers to crc32.o(.bss) for crc_tab32
    see_i2c.o(i.SEE_i2c_init) refers to stm32f10x_i2c.o(i.I2C_Cmd) for I2C_Cmd
    see_i2c.o(i.SEE_i2c_init) refers to stm32f10x_i2c.o(i.I2C_Init) for I2C_Init
    see_i2c.o(i.SEE_i2c_init) refers to see_i2c.o(.data) for sEEAddress
    see_i2c.o(i.SEE_i2c_read) refers to see_i2c.o(i.sEE_TIMEOUT_UserCallback) for sEE_TIMEOUT_UserCallback
    see_i2c.o(i.SEE_i2c_read) refers to stm32f10x_i2c.o(i.I2C_GetFlagStatus) for I2C_GetFlagStatus
    see_i2c.o(i.SEE_i2c_read) refers to stm32f10x_i2c.o(i.I2C_GenerateSTART) for I2C_GenerateSTART
    see_i2c.o(i.SEE_i2c_read) refers to stm32f10x_i2c.o(i.I2C_CheckEvent) for I2C_CheckEvent
    see_i2c.o(i.SEE_i2c_read) refers to stm32f10x_i2c.o(i.I2C_Send7bitAddress) for I2C_Send7bitAddress
    see_i2c.o(i.SEE_i2c_read) refers to stm32f10x_i2c.o(i.I2C_SendData) for I2C_SendData
    see_i2c.o(i.SEE_i2c_read) refers to stm32f10x_i2c.o(i.I2C_AcknowledgeConfig) for I2C_AcknowledgeConfig
    see_i2c.o(i.SEE_i2c_read) refers to stm32f10x_i2c.o(i.I2C_ReceiveData) for I2C_ReceiveData
    see_i2c.o(i.SEE_i2c_read) refers to stm32f10x_i2c.o(i.I2C_GenerateSTOP) for I2C_GenerateSTOP
    see_i2c.o(i.SEE_i2c_read) refers to see_i2c.o(.data) for sEETimeout
    see_i2c.o(i.SEE_i2c_write) refers to see_i2c.o(i.sEE_WaitEepromStandbyState) for sEE_WaitEepromStandbyState
    see_i2c.o(i.SEE_i2c_write) refers to see_i2c.o(i.sEE_TIMEOUT_UserCallback) for sEE_TIMEOUT_UserCallback
    see_i2c.o(i.SEE_i2c_write) refers to stm32f10x_i2c.o(i.I2C_GetFlagStatus) for I2C_GetFlagStatus
    see_i2c.o(i.SEE_i2c_write) refers to stm32f10x_i2c.o(i.I2C_GenerateSTART) for I2C_GenerateSTART
    see_i2c.o(i.SEE_i2c_write) refers to stm32f10x_i2c.o(i.I2C_CheckEvent) for I2C_CheckEvent
    see_i2c.o(i.SEE_i2c_write) refers to stm32f10x_i2c.o(i.I2C_Send7bitAddress) for I2C_Send7bitAddress
    see_i2c.o(i.SEE_i2c_write) refers to stm32f10x_i2c.o(i.I2C_SendData) for I2C_SendData
    see_i2c.o(i.SEE_i2c_write) refers to stm32f10x_i2c.o(i.I2C_GenerateSTOP) for I2C_GenerateSTOP
    see_i2c.o(i.SEE_i2c_write) refers to see_i2c.o(.data) for sEETimeout
    see_i2c.o(i.sEE_WaitEepromStandbyState) refers to see_i2c.o(i.sEE_TIMEOUT_UserCallback) for sEE_TIMEOUT_UserCallback
    see_i2c.o(i.sEE_WaitEepromStandbyState) refers to stm32f10x_i2c.o(i.I2C_GetFlagStatus) for I2C_GetFlagStatus
    see_i2c.o(i.sEE_WaitEepromStandbyState) refers to stm32f10x_i2c.o(i.I2C_GenerateSTART) for I2C_GenerateSTART
    see_i2c.o(i.sEE_WaitEepromStandbyState) refers to stm32f10x_i2c.o(i.I2C_CheckEvent) for I2C_CheckEvent
    see_i2c.o(i.sEE_WaitEepromStandbyState) refers to stm32f10x_i2c.o(i.I2C_Send7bitAddress) for I2C_Send7bitAddress
    see_i2c.o(i.sEE_WaitEepromStandbyState) refers to stm32f10x_i2c.o(i.I2C_GenerateSTOP) for I2C_GenerateSTOP
    see_i2c.o(i.sEE_WaitEepromStandbyState) refers to stm32f10x_i2c.o(i.I2C_ClearFlag) for I2C_ClearFlag
    see_i2c.o(i.sEE_WaitEepromStandbyState) refers to see_i2c.o(.data) for sEETimeout
    time_utils.o(i.TIM3_IRQHandler) refers to stm32f10x_tim.o(i.TIM_GetITStatus) for TIM_GetITStatus
    time_utils.o(i.TIM3_IRQHandler) refers to stm32f10x_tim.o(i.TIM_ClearITPendingBit) for TIM_ClearITPendingBit
    time_utils.o(i.TIM3_IRQHandler) refers to time_utils.o(.data) for l_timestamp
    time_utils.o(i.TIM3_Int_Init) refers to stm32f10x_rcc.o(i.RCC_APB1PeriphClockCmd) for RCC_APB1PeriphClockCmd
    time_utils.o(i.TIM3_Int_Init) refers to stm32f10x_tim.o(i.TIM_TimeBaseInit) for TIM_TimeBaseInit
    time_utils.o(i.TIM3_Int_Init) refers to stm32f10x_tim.o(i.TIM_ITConfig) for TIM_ITConfig
    time_utils.o(i.TIM3_Int_Init) refers to misc.o(i.NVIC_Init) for NVIC_Init
    time_utils.o(i.TIM3_Int_Init) refers to stm32f10x_tim.o(i.TIM_Cmd) for TIM_Cmd
    time_utils.o(i.delay_ms) refers to time_utils.o(i.get_timestamp) for get_timestamp
    time_utils.o(i.get_timestamp) refers to time_utils.o(.data) for l_timestamp
    time_utils.o(i.tick_ms_init) refers to time_utils.o(i.TIM3_Int_Init) for TIM3_Int_Init
    usart_utils.o(i.usart_init) refers to stm32f10x_usart.o(i.USART_Cmd) for USART_Cmd
    usart_utils.o(i.usart_init) refers to stm32f10x_usart.o(i.USART_Init) for USART_Init
    usart_utils.o(i.usart_read) refers to time_utils.o(i.get_timestamp) for get_timestamp
    usart_utils.o(i.usart_read) refers to stm32f10x_usart.o(i.USART_GetFlagStatus) for USART_GetFlagStatus
    usart_utils.o(i.usart_read) refers to stm32f10x_usart.o(i.USART_ReceiveData) for USART_ReceiveData
    usart_utils.o(i.usart_write) refers to stm32f10x_usart.o(i.USART_SendData) for USART_SendData
    usart_utils.o(i.usart_write) refers to stm32f10x_usart.o(i.USART_GetFlagStatus) for USART_GetFlagStatus
    utils.o(i.checkConfigIPORT) refers to _scanf_int.o(.text) for _scanf_int
    utils.o(i.checkConfigIPORT) refers to __0sscanf.o(.text) for __0sscanf
    utils.o(i.checkConfigRS232) refers to _scanf_int.o(.text) for _scanf_int
    utils.o(i.checkConfigRS232) refers to __0sscanf.o(.text) for __0sscanf
    utils.o(i.memmem) refers to memchr.o(.text) for memchr
    utils.o(i.memmem) refers to memcmp.o(.text) for memcmp
    completion.o(i.rt_completion_done) refers to context_rvds.o(.text) for rt_hw_interrupt_disable
    completion.o(i.rt_completion_done) refers to thread.o(i.rt_thread_resume) for rt_thread_resume
    completion.o(i.rt_completion_done) refers to scheduler.o(i.rt_schedule) for rt_schedule
    completion.o(i.rt_completion_init) refers to context_rvds.o(.text) for rt_hw_interrupt_disable
    completion.o(i.rt_completion_wait) refers to thread.o(i.rt_thread_self) for rt_thread_self
    completion.o(i.rt_completion_wait) refers to context_rvds.o(.text) for rt_hw_interrupt_disable
    completion.o(i.rt_completion_wait) refers to thread.o(i.rt_thread_suspend) for rt_thread_suspend
    completion.o(i.rt_completion_wait) refers to timer.o(i.rt_timer_control) for rt_timer_control
    completion.o(i.rt_completion_wait) refers to timer.o(i.rt_timer_start) for rt_timer_start
    completion.o(i.rt_completion_wait) refers to scheduler.o(i.rt_schedule) for rt_schedule
    dataqueue.o(i.rt_data_queue_init) refers to dataqueue.o(i.rt_list_init) for rt_list_init
    dataqueue.o(i.rt_data_queue_init) refers to mem.o(i.rt_malloc) for rt_malloc
    dataqueue.o(i.rt_data_queue_peak) refers to context_rvds.o(.text) for rt_hw_interrupt_disable
    dataqueue.o(i.rt_data_queue_pop) refers to thread.o(i.rt_thread_self) for rt_thread_self
    dataqueue.o(i.rt_data_queue_pop) refers to context_rvds.o(.text) for rt_hw_interrupt_disable
    dataqueue.o(i.rt_data_queue_pop) refers to thread.o(i.rt_thread_suspend) for rt_thread_suspend
    dataqueue.o(i.rt_data_queue_pop) refers to dataqueue.o(i.rt_list_insert_before) for rt_list_insert_before
    dataqueue.o(i.rt_data_queue_pop) refers to timer.o(i.rt_timer_control) for rt_timer_control
    dataqueue.o(i.rt_data_queue_pop) refers to timer.o(i.rt_timer_start) for rt_timer_start
    dataqueue.o(i.rt_data_queue_pop) refers to scheduler.o(i.rt_schedule) for rt_schedule
    dataqueue.o(i.rt_data_queue_pop) refers to dataqueue.o(i.rt_list_isempty) for rt_list_isempty
    dataqueue.o(i.rt_data_queue_pop) refers to thread.o(i.rt_thread_resume) for rt_thread_resume
    dataqueue.o(i.rt_data_queue_push) refers to thread.o(i.rt_thread_self) for rt_thread_self
    dataqueue.o(i.rt_data_queue_push) refers to context_rvds.o(.text) for rt_hw_interrupt_disable
    dataqueue.o(i.rt_data_queue_push) refers to thread.o(i.rt_thread_suspend) for rt_thread_suspend
    dataqueue.o(i.rt_data_queue_push) refers to dataqueue.o(i.rt_list_insert_before) for rt_list_insert_before
    dataqueue.o(i.rt_data_queue_push) refers to timer.o(i.rt_timer_control) for rt_timer_control
    dataqueue.o(i.rt_data_queue_push) refers to timer.o(i.rt_timer_start) for rt_timer_start
    dataqueue.o(i.rt_data_queue_push) refers to scheduler.o(i.rt_schedule) for rt_schedule
    dataqueue.o(i.rt_data_queue_push) refers to dataqueue.o(i.rt_list_isempty) for rt_list_isempty
    dataqueue.o(i.rt_data_queue_push) refers to thread.o(i.rt_thread_resume) for rt_thread_resume
    dataqueue.o(i.rt_data_queue_reset) refers to scheduler.o(i.rt_enter_critical) for rt_enter_critical
    dataqueue.o(i.rt_data_queue_reset) refers to context_rvds.o(.text) for rt_hw_interrupt_disable
    dataqueue.o(i.rt_data_queue_reset) refers to thread.o(i.rt_thread_resume) for rt_thread_resume
    dataqueue.o(i.rt_data_queue_reset) refers to dataqueue.o(i.rt_list_isempty) for rt_list_isempty
    dataqueue.o(i.rt_data_queue_reset) refers to scheduler.o(i.rt_exit_critical) for rt_exit_critical
    dataqueue.o(i.rt_data_queue_reset) refers to scheduler.o(i.rt_schedule) for rt_schedule
    pipe.o(i.rt_pipe_close) refers to ipc.o(i.rt_mutex_take) for rt_mutex_take
    pipe.o(i.rt_pipe_close) refers to ringbuffer.o(i.rt_ringbuffer_destroy) for rt_ringbuffer_destroy
    pipe.o(i.rt_pipe_close) refers to ipc.o(i.rt_mutex_release) for rt_mutex_release
    pipe.o(i.rt_pipe_create) refers to mem.o(i.rt_malloc) for rt_malloc
    pipe.o(i.rt_pipe_create) refers to kservice.o(i.rt_memset) for rt_memset
    pipe.o(i.rt_pipe_create) refers to ipc.o(i.rt_mutex_init) for rt_mutex_init
    pipe.o(i.rt_pipe_create) refers to pipe.o(i.rt_list_init) for rt_list_init
    pipe.o(i.rt_pipe_create) refers to device.o(i.rt_device_register) for rt_device_register
    pipe.o(i.rt_pipe_create) refers to mem.o(i.rt_free) for rt_free
    pipe.o(i.rt_pipe_create) refers to pipe.o(i.rt_pipe_open) for rt_pipe_open
    pipe.o(i.rt_pipe_create) refers to pipe.o(i.rt_pipe_read) for rt_pipe_read
    pipe.o(i.rt_pipe_create) refers to pipe.o(i.rt_pipe_write) for rt_pipe_write
    pipe.o(i.rt_pipe_create) refers to pipe.o(i.rt_pipe_close) for rt_pipe_close
    pipe.o(i.rt_pipe_create) refers to pipe.o(i.rt_pipe_control) for rt_pipe_control
    pipe.o(i.rt_pipe_delete) refers to device.o(i.rt_device_find) for rt_device_find
    pipe.o(i.rt_pipe_delete) refers to ipc.o(i.rt_mutex_detach) for rt_mutex_detach
    pipe.o(i.rt_pipe_delete) refers to device.o(i.rt_device_unregister) for rt_device_unregister
    pipe.o(i.rt_pipe_delete) refers to ringbuffer.o(i.rt_ringbuffer_destroy) for rt_ringbuffer_destroy
    pipe.o(i.rt_pipe_delete) refers to mem.o(i.rt_free) for rt_free
    pipe.o(i.rt_pipe_open) refers to ipc.o(i.rt_mutex_take) for rt_mutex_take
    pipe.o(i.rt_pipe_open) refers to ringbuffer.o(i.rt_ringbuffer_create) for rt_ringbuffer_create
    pipe.o(i.rt_pipe_open) refers to ipc.o(i.rt_mutex_release) for rt_mutex_release
    pipe.o(i.rt_pipe_read) refers to kservice.o(i.rt_set_errno) for rt_set_errno
    pipe.o(i.rt_pipe_read) refers to ipc.o(i.rt_mutex_take) for rt_mutex_take
    pipe.o(i.rt_pipe_read) refers to ringbuffer.o(i.rt_ringbuffer_get) for rt_ringbuffer_get
    pipe.o(i.rt_pipe_read) refers to ipc.o(i.rt_mutex_release) for rt_mutex_release
    pipe.o(i.rt_pipe_write) refers to kservice.o(i.rt_set_errno) for rt_set_errno
    pipe.o(i.rt_pipe_write) refers to ipc.o(i.rt_mutex_take) for rt_mutex_take
    pipe.o(i.rt_pipe_write) refers to ringbuffer.o(i.rt_ringbuffer_put) for rt_ringbuffer_put
    pipe.o(i.rt_pipe_write) refers to ipc.o(i.rt_mutex_release) for rt_mutex_release
    ringbuffer.o(i.rt_ringbuffer_create) refers to mem.o(i.rt_malloc) for rt_malloc
    ringbuffer.o(i.rt_ringbuffer_create) refers to mem.o(i.rt_free) for rt_free
    ringbuffer.o(i.rt_ringbuffer_create) refers to ringbuffer.o(i.rt_ringbuffer_init) for rt_ringbuffer_init
    ringbuffer.o(i.rt_ringbuffer_data_len) refers to ringbuffer.o(i.rt_ringbuffer_status) for rt_ringbuffer_status
    ringbuffer.o(i.rt_ringbuffer_destroy) refers to mem.o(i.rt_free) for rt_free
    ringbuffer.o(i.rt_ringbuffer_get) refers to ringbuffer.o(i.rt_ringbuffer_data_len) for rt_ringbuffer_data_len
    ringbuffer.o(i.rt_ringbuffer_get) refers to rt_memcpy_v6.o(.text) for __aeabi_memcpy
    ringbuffer.o(i.rt_ringbuffer_getchar) refers to ringbuffer.o(i.rt_ringbuffer_data_len) for rt_ringbuffer_data_len
    ringbuffer.o(i.rt_ringbuffer_put) refers to ringbuffer.o(i.rt_ringbuffer_data_len) for rt_ringbuffer_data_len
    ringbuffer.o(i.rt_ringbuffer_put) refers to rt_memcpy_v6.o(.text) for __aeabi_memcpy
    ringbuffer.o(i.rt_ringbuffer_put_force) refers to ringbuffer.o(i.rt_ringbuffer_data_len) for rt_ringbuffer_data_len
    ringbuffer.o(i.rt_ringbuffer_put_force) refers to rt_memcpy_v6.o(.text) for __aeabi_memcpy
    ringbuffer.o(i.rt_ringbuffer_putchar) refers to ringbuffer.o(i.rt_ringbuffer_data_len) for rt_ringbuffer_data_len
    ringbuffer.o(i.rt_ringbuffer_putchar_force) refers to ringbuffer.o(i.rt_ringbuffer_status) for rt_ringbuffer_status
    serial.o(i._serial_dma_rx) refers to context_rvds.o(.text) for rt_hw_interrupt_disable
    serial.o(i._serial_dma_rx) refers to kservice.o(i.rt_set_errno) for rt_set_errno
    serial.o(i._serial_dma_rx) refers to serial.o(i.rt_dma_calc_recved_len) for rt_dma_calc_recved_len
    serial.o(i._serial_dma_rx) refers to kservice.o(i.rt_memcpy) for rt_memcpy
    serial.o(i._serial_dma_rx) refers to serial.o(i.rt_dma_recv_update_get_index) for rt_dma_recv_update_get_index
    serial.o(i._serial_dma_tx) refers to dataqueue.o(i.rt_data_queue_push) for rt_data_queue_push
    serial.o(i._serial_dma_tx) refers to context_rvds.o(.text) for rt_hw_interrupt_disable
    serial.o(i._serial_dma_tx) refers to kservice.o(i.rt_set_errno) for rt_set_errno
    serial.o(i._serial_int_rx) refers to context_rvds.o(.text) for rt_hw_interrupt_disable
    serial.o(i.rt_dma_calc_recved_len) refers to serial.o(i._serial_fifo_calc_recved_len) for _serial_fifo_calc_recved_len
    serial.o(i.rt_hw_serial_isr) refers to context_rvds.o(.text) for rt_hw_interrupt_disable
    serial.o(i.rt_hw_serial_isr) refers to completion.o(i.rt_completion_done) for rt_completion_done
    serial.o(i.rt_hw_serial_isr) refers to dataqueue.o(i.rt_data_queue_pop) for rt_data_queue_pop
    serial.o(i.rt_hw_serial_isr) refers to dataqueue.o(i.rt_data_queue_peak) for rt_data_queue_peak
    serial.o(i.rt_hw_serial_isr) refers to serial.o(i.rt_dma_recv_update_put_index) for rt_dma_recv_update_put_index
    serial.o(i.rt_hw_serial_isr) refers to serial.o(i.rt_dma_calc_recved_len) for rt_dma_calc_recved_len
    serial.o(i.rt_hw_serial_register) refers to device.o(i.rt_device_register) for rt_device_register
    serial.o(i.rt_hw_serial_register) refers to serial.o(i.rt_serial_init) for rt_serial_init
    serial.o(i.rt_hw_serial_register) refers to serial.o(i.rt_serial_open) for rt_serial_open
    serial.o(i.rt_hw_serial_register) refers to serial.o(i.rt_serial_close) for rt_serial_close
    serial.o(i.rt_hw_serial_register) refers to serial.o(i.rt_serial_read) for rt_serial_read
    serial.o(i.rt_hw_serial_register) refers to serial.o(i.rt_serial_write) for rt_serial_write
    serial.o(i.rt_hw_serial_register) refers to serial.o(i.rt_serial_control) for rt_serial_control
    serial.o(i.rt_serial_close) refers to mem.o(i.rt_free) for rt_free
    serial.o(i.rt_serial_open) refers to mem.o(i.rt_malloc) for rt_malloc
    serial.o(i.rt_serial_open) refers to kservice.o(i.rt_memset) for rt_memset
    serial.o(i.rt_serial_open) refers to dataqueue.o(i.rt_data_queue_init) for rt_data_queue_init
    serial.o(i.rt_serial_open) refers to completion.o(i.rt_completion_init) for rt_completion_init
    serial.o(i.rt_serial_read) refers to serial.o(i._serial_int_rx) for _serial_int_rx
    serial.o(i.rt_serial_read) refers to serial.o(i._serial_dma_rx) for _serial_dma_rx
    serial.o(i.rt_serial_write) refers to completion.o(i.rt_completion_wait) for rt_completion_wait
    serial.o(i.rt_serial_write) refers to serial.o(i._serial_dma_tx) for _serial_dma_tx
    usart.o(i.DMA1_Channel3_IRQHandler) refers to irq.o(i.rt_interrupt_enter) for rt_interrupt_enter
    usart.o(i.DMA1_Channel3_IRQHandler) refers to usart.o(i.dma_rx_done_isr) for dma_rx_done_isr
    usart.o(i.DMA1_Channel3_IRQHandler) refers to irq.o(i.rt_interrupt_leave) for rt_interrupt_leave
    usart.o(i.DMA1_Channel3_IRQHandler) refers to usart.o(.bss) for serial3
    usart.o(i.DMA1_Channel5_IRQHandler) refers to irq.o(i.rt_interrupt_enter) for rt_interrupt_enter
    usart.o(i.DMA1_Channel5_IRQHandler) refers to usart.o(i.dma_rx_done_isr) for dma_rx_done_isr
    usart.o(i.DMA1_Channel5_IRQHandler) refers to irq.o(i.rt_interrupt_leave) for rt_interrupt_leave
    usart.o(i.DMA1_Channel5_IRQHandler) refers to usart.o(.bss) for serial1
    usart.o(i.DMA_Configuration) refers to stm32f10x_usart.o(i.USART_ITConfig) for USART_ITConfig
    usart.o(i.DMA_Configuration) refers to stm32f10x_rcc.o(i.RCC_AHBPeriphClockCmd) for RCC_AHBPeriphClockCmd
    usart.o(i.DMA_Configuration) refers to stm32f10x_dma.o(i.DMA_DeInit) for DMA_DeInit
    usart.o(i.DMA_Configuration) refers to stm32f10x_dma.o(i.DMA_Init) for DMA_Init
    usart.o(i.DMA_Configuration) refers to stm32f10x_dma.o(i.DMA_ClearFlag) for DMA_ClearFlag
    usart.o(i.DMA_Configuration) refers to stm32f10x_dma.o(i.DMA_ITConfig) for DMA_ITConfig
    usart.o(i.DMA_Configuration) refers to stm32f10x_usart.o(i.USART_DMACmd) for USART_DMACmd
    usart.o(i.DMA_Configuration) refers to stm32f10x_dma.o(i.DMA_Cmd) for DMA_Cmd
    usart.o(i.DMA_Configuration) refers to misc.o(i.NVIC_Init) for NVIC_Init
    usart.o(i.GPIO_Configuration) refers to stm32f10x_gpio.o(i.GPIO_Init) for GPIO_Init
    usart.o(i.NVIC_Configuration) refers to misc.o(i.NVIC_Init) for NVIC_Init
    usart.o(i.RCC_Configuration) refers to stm32f10x_rcc.o(i.RCC_APB2PeriphClockCmd) for RCC_APB2PeriphClockCmd
    usart.o(i.RCC_Configuration) refers to stm32f10x_rcc.o(i.RCC_APB1PeriphClockCmd) for RCC_APB1PeriphClockCmd
    usart.o(i.USART1_IRQHandler) refers to irq.o(i.rt_interrupt_enter) for rt_interrupt_enter
    usart.o(i.USART1_IRQHandler) refers to usart.o(i.uart_isr) for uart_isr
    usart.o(i.USART1_IRQHandler) refers to irq.o(i.rt_interrupt_leave) for rt_interrupt_leave
    usart.o(i.USART1_IRQHandler) refers to usart.o(.bss) for serial1
    usart.o(i.USART3_IRQHandler) refers to irq.o(i.rt_interrupt_enter) for rt_interrupt_enter
    usart.o(i.USART3_IRQHandler) refers to usart.o(i.uart_isr) for uart_isr
    usart.o(i.USART3_IRQHandler) refers to irq.o(i.rt_interrupt_leave) for rt_interrupt_leave
    usart.o(i.USART3_IRQHandler) refers to usart.o(.bss) for serial3
    usart.o(i.dma_rx_done_isr) refers to context_rvds.o(.text) for rt_hw_interrupt_disable
    usart.o(i.dma_rx_done_isr) refers to serial.o(i.rt_hw_serial_isr) for rt_hw_serial_isr
    usart.o(i.dma_rx_done_isr) refers to stm32f10x_dma.o(i.DMA_ClearFlag) for DMA_ClearFlag
    usart.o(i.dma_uart_rx_idle_isr) refers to context_rvds.o(.text) for rt_hw_interrupt_disable
    usart.o(i.dma_uart_rx_idle_isr) refers to stm32f10x_dma.o(i.DMA_GetCurrDataCounter) for DMA_GetCurrDataCounter
    usart.o(i.dma_uart_rx_idle_isr) refers to serial.o(i.rt_hw_serial_isr) for rt_hw_serial_isr
    usart.o(i.dma_uart_rx_idle_isr) refers to stm32f10x_usart.o(i.USART_ReceiveData) for USART_ReceiveData
    usart.o(i.dma_uart_rx_idle_isr) refers to stm32f10x_dma.o(i.DMA_ClearFlag) for DMA_ClearFlag
    usart.o(i.rt_hw_usart_init) refers to usart.o(i.RCC_Configuration) for RCC_Configuration
    usart.o(i.rt_hw_usart_init) refers to usart.o(i.GPIO_Configuration) for GPIO_Configuration
    usart.o(i.rt_hw_usart_init) refers to usart.o(i.NVIC_Configuration) for NVIC_Configuration
    usart.o(i.rt_hw_usart_init) refers to serial.o(i.rt_hw_serial_register) for rt_hw_serial_register
    usart.o(i.rt_hw_usart_init) refers to usart.o(.constdata) for .constdata
    usart.o(i.rt_hw_usart_init) refers to usart.o(.data) for uart1
    usart.o(i.rt_hw_usart_init) refers to usart.o(.bss) for serial1
    usart.o(i.stm32_configure) refers to stm32f10x_usart.o(i.USART_Init) for USART_Init
    usart.o(i.stm32_configure) refers to stm32f10x_usart.o(i.USART_Cmd) for USART_Cmd
    usart.o(i.stm32_control) refers to stm32f10x_usart.o(i.USART_ITConfig) for USART_ITConfig
    usart.o(i.stm32_control) refers to usart.o(i.DMA_Configuration) for DMA_Configuration
    usart.o(i.stm32_putc) refers to stm32f10x_usart.o(i.USART_ITConfig) for USART_ITConfig
    usart.o(i.uart_isr) refers to stm32f10x_usart.o(i.USART_GetITStatus) for USART_GetITStatus
    usart.o(i.uart_isr) refers to stm32f10x_usart.o(i.USART_GetFlagStatus) for USART_GetFlagStatus
    usart.o(i.uart_isr) refers to serial.o(i.rt_hw_serial_isr) for rt_hw_serial_isr
    usart.o(i.uart_isr) refers to stm32f10x_usart.o(i.USART_ClearITPendingBit) for USART_ClearITPendingBit
    usart.o(i.uart_isr) refers to usart.o(i.dma_uart_rx_idle_isr) for dma_uart_rx_idle_isr
    usart.o(i.uart_isr) refers to stm32f10x_usart.o(i.USART_ITConfig) for USART_ITConfig
    usart.o(i.uart_isr) refers to usart.o(i.stm32_getc) for stm32_getc
    usart.o(.constdata) refers to usart.o(i.stm32_configure) for stm32_configure
    usart.o(.constdata) refers to usart.o(i.stm32_control) for stm32_control
    usart.o(.constdata) refers to usart.o(i.stm32_putc) for stm32_putc
    usart.o(.constdata) refers to usart.o(i.stm32_getc) for stm32_getc
    waitqueue.o(i.rt_wqueue_add) refers to context_rvds.o(.text) for rt_hw_interrupt_disable
    waitqueue.o(i.rt_wqueue_remove) refers to context_rvds.o(.text) for rt_hw_interrupt_disable
    waitqueue.o(i.rt_wqueue_wait) refers to clock.o(i.rt_tick_from_millisecond) for rt_tick_from_millisecond
    waitqueue.o(i.rt_wqueue_wait) refers to thread.o(i.rt_thread_self) for rt_thread_self
    waitqueue.o(i.rt_wqueue_wait) refers to waitqueue.o(i.rt_wqueue_add) for rt_wqueue_add
    waitqueue.o(i.rt_wqueue_wait) refers to thread.o(i.rt_thread_suspend) for rt_thread_suspend
    waitqueue.o(i.rt_wqueue_wait) refers to timer.o(i.rt_timer_control) for rt_timer_control
    waitqueue.o(i.rt_wqueue_wait) refers to timer.o(i.rt_timer_start) for rt_timer_start
    waitqueue.o(i.rt_wqueue_wait) refers to scheduler.o(i.rt_schedule) for rt_schedule
    waitqueue.o(i.rt_wqueue_wait) refers to waitqueue.o(i.rt_wqueue_remove) for rt_wqueue_remove
    waitqueue.o(i.rt_wqueue_wait) refers to scheduler.o(.data) for rt_current_thread
    waitqueue.o(i.rt_wqueue_wait) refers to waitqueue.o(i.__wqueue_default_wake) for __wqueue_default_wake
    waitqueue.o(i.rt_wqueue_wakeup) refers to context_rvds.o(.text) for rt_hw_interrupt_disable
    waitqueue.o(i.rt_wqueue_wakeup) refers to thread.o(i.rt_thread_resume) for rt_thread_resume
    waitqueue.o(i.rt_wqueue_wakeup) refers to waitqueue.o(i.rt_wqueue_remove) for rt_wqueue_remove
    waitqueue.o(i.rt_wqueue_wakeup) refers to scheduler.o(i.rt_schedule) for rt_schedule
    workqueue.o(i._workqueue_thread_entry) refers to thread.o(i.rt_thread_self) for rt_thread_self
    workqueue.o(i._workqueue_thread_entry) refers to thread.o(i.rt_thread_suspend) for rt_thread_suspend
    workqueue.o(i._workqueue_thread_entry) refers to scheduler.o(i.rt_schedule) for rt_schedule
    workqueue.o(i._workqueue_thread_entry) refers to context_rvds.o(.text) for rt_hw_interrupt_disable
    workqueue.o(i._workqueue_thread_entry) refers to workqueue.o(i.rt_list_remove) for rt_list_remove
    workqueue.o(i._workqueue_thread_entry) refers to scheduler.o(i.rt_enter_critical) for rt_enter_critical
    workqueue.o(i._workqueue_thread_entry) refers to ipc.o(i.rt_sem_trytake) for rt_sem_trytake
    workqueue.o(i._workqueue_thread_entry) refers to ipc.o(i.rt_sem_release) for rt_sem_release
    workqueue.o(i._workqueue_thread_entry) refers to scheduler.o(i.rt_exit_critical) for rt_exit_critical
    workqueue.o(i.rt_workqueue_cancel_all_work) refers to scheduler.o(i.rt_enter_critical) for rt_enter_critical
    workqueue.o(i.rt_workqueue_cancel_all_work) refers to workqueue.o(i.rt_list_remove) for rt_list_remove
    workqueue.o(i.rt_workqueue_cancel_all_work) refers to scheduler.o(i.rt_exit_critical) for rt_exit_critical
    workqueue.o(i.rt_workqueue_cancel_work) refers to context_rvds.o(.text) for rt_hw_interrupt_disable
    workqueue.o(i.rt_workqueue_cancel_work) refers to workqueue.o(i.rt_list_remove) for rt_list_remove
    workqueue.o(i.rt_workqueue_cancel_work_sync) refers to context_rvds.o(.text) for rt_hw_interrupt_disable
    workqueue.o(i.rt_workqueue_cancel_work_sync) refers to ipc.o(i.rt_sem_take) for rt_sem_take
    workqueue.o(i.rt_workqueue_cancel_work_sync) refers to workqueue.o(i.rt_list_remove) for rt_list_remove
    workqueue.o(i.rt_workqueue_create) refers to mem.o(i.rt_malloc) for rt_malloc
    workqueue.o(i.rt_workqueue_create) refers to ipc.o(i.rt_sem_init) for rt_sem_init
    workqueue.o(i.rt_workqueue_create) refers to thread.o(i.rt_thread_create) for rt_thread_create
    workqueue.o(i.rt_workqueue_create) refers to mem.o(i.rt_free) for rt_free
    workqueue.o(i.rt_workqueue_create) refers to thread.o(i.rt_thread_startup) for rt_thread_startup
    workqueue.o(i.rt_workqueue_create) refers to workqueue.o(i._workqueue_thread_entry) for _workqueue_thread_entry
    workqueue.o(i.rt_workqueue_critical_work) refers to context_rvds.o(.text) for rt_hw_interrupt_disable
    workqueue.o(i.rt_workqueue_critical_work) refers to workqueue.o(i.rt_list_remove) for rt_list_remove
    workqueue.o(i.rt_workqueue_critical_work) refers to workqueue.o(i.rt_list_insert_after) for rt_list_insert_after
    workqueue.o(i.rt_workqueue_critical_work) refers to thread.o(i.rt_thread_resume) for rt_thread_resume
    workqueue.o(i.rt_workqueue_critical_work) refers to scheduler.o(i.rt_schedule) for rt_schedule
    workqueue.o(i.rt_workqueue_destroy) refers to thread.o(i.rt_thread_delete) for rt_thread_delete
    workqueue.o(i.rt_workqueue_destroy) refers to mem.o(i.rt_free) for rt_free
    workqueue.o(i.rt_workqueue_dowork) refers to context_rvds.o(.text) for rt_hw_interrupt_disable
    workqueue.o(i.rt_workqueue_dowork) refers to workqueue.o(i.rt_list_remove) for rt_list_remove
    workqueue.o(i.rt_workqueue_dowork) refers to workqueue.o(i.rt_list_insert_after) for rt_list_insert_after
    workqueue.o(i.rt_workqueue_dowork) refers to thread.o(i.rt_thread_resume) for rt_thread_resume
    workqueue.o(i.rt_workqueue_dowork) refers to scheduler.o(i.rt_schedule) for rt_schedule
    startup_stm32f10x_md.o(STACK) refers (Special) to heapauxi.o(.text) for __use_two_region_memory
    startup_stm32f10x_md.o(HEAP) refers (Special) to heapauxi.o(.text) for __use_two_region_memory
    startup_stm32f10x_md.o(RESET) refers (Special) to heapauxi.o(.text) for __use_two_region_memory
    startup_stm32f10x_md.o(RESET) refers to startup_stm32f10x_md.o(STACK) for __initial_sp
    startup_stm32f10x_md.o(RESET) refers to startup_stm32f10x_md.o(.text) for Reset_Handler
    startup_stm32f10x_md.o(RESET) refers to context_rvds.o(.text) for HardFault_Handler
    startup_stm32f10x_md.o(RESET) refers to board.o(i.SysTick_Handler) for SysTick_Handler
    startup_stm32f10x_md.o(RESET) refers to usart.o(i.DMA1_Channel3_IRQHandler) for DMA1_Channel3_IRQHandler
    startup_stm32f10x_md.o(RESET) refers to usart.o(i.DMA1_Channel5_IRQHandler) for DMA1_Channel5_IRQHandler
    startup_stm32f10x_md.o(RESET) refers to time_utils.o(i.TIM3_IRQHandler) for TIM3_IRQHandler
    startup_stm32f10x_md.o(RESET) refers to usart.o(i.USART1_IRQHandler) for USART1_IRQHandler
    startup_stm32f10x_md.o(RESET) refers to usart.o(i.USART3_IRQHandler) for USART3_IRQHandler
    startup_stm32f10x_md.o(RESET) refers to main.o(i.EXTI15_10_IRQHandler) for EXTI15_10_IRQHandler
    startup_stm32f10x_md.o(.text) refers (Special) to heapauxi.o(.text) for __use_two_region_memory
    startup_stm32f10x_md.o(.text) refers to system_stm32f10x.o(i.SystemInit) for SystemInit
    startup_stm32f10x_md.o(.text) refers to __main.o(!!!main) for __main
    startup_stm32f10x_md.o(.text) refers to startup_stm32f10x_md.o(HEAP) for Heap_Mem
    startup_stm32f10x_md.o(.text) refers to startup_stm32f10x_md.o(STACK) for Stack_Mem
    system_stm32f10x.o(i.SetSysClock) refers to system_stm32f10x.o(i.SetSysClockTo72) for SetSysClockTo72
    system_stm32f10x.o(i.SystemCoreClockUpdate) refers to system_stm32f10x.o(.data) for SystemCoreClock
    system_stm32f10x.o(i.SystemInit) refers to system_stm32f10x.o(i.SetSysClock) for SetSysClock
    stm32f10x_gpio.o(i.GPIO_AFIODeInit) refers to stm32f10x_rcc.o(i.RCC_APB2PeriphResetCmd) for RCC_APB2PeriphResetCmd
    stm32f10x_gpio.o(i.GPIO_DeInit) refers to stm32f10x_rcc.o(i.RCC_APB2PeriphResetCmd) for RCC_APB2PeriphResetCmd
    stm32f10x_rcc.o(i.RCC_GetClocksFreq) refers to stm32f10x_rcc.o(.data) for APBAHBPrescTable
    stm32f10x_rcc.o(i.RCC_WaitForHSEStartUp) refers to stm32f10x_rcc.o(i.RCC_GetFlagStatus) for RCC_GetFlagStatus
    stm32f10x_spi.o(i.I2S_Init) refers to stm32f10x_rcc.o(i.RCC_GetClocksFreq) for RCC_GetClocksFreq
    stm32f10x_spi.o(i.SPI_I2S_DeInit) refers to stm32f10x_rcc.o(i.RCC_APB2PeriphResetCmd) for RCC_APB2PeriphResetCmd
    stm32f10x_spi.o(i.SPI_I2S_DeInit) refers to stm32f10x_rcc.o(i.RCC_APB1PeriphResetCmd) for RCC_APB1PeriphResetCmd
    stm32f10x_usart.o(i.USART_DeInit) refers to stm32f10x_rcc.o(i.RCC_APB2PeriphResetCmd) for RCC_APB2PeriphResetCmd
    stm32f10x_usart.o(i.USART_DeInit) refers to stm32f10x_rcc.o(i.RCC_APB1PeriphResetCmd) for RCC_APB1PeriphResetCmd
    stm32f10x_usart.o(i.USART_Init) refers to stm32f10x_rcc.o(i.RCC_GetClocksFreq) for RCC_GetClocksFreq
    stm32f10x_wwdg.o(i.WWDG_DeInit) refers to stm32f10x_rcc.o(i.RCC_APB1PeriphResetCmd) for RCC_APB1PeriphResetCmd
    stm32f10x_tim.o(i.TIM_DeInit) refers to stm32f10x_rcc.o(i.RCC_APB2PeriphResetCmd) for RCC_APB2PeriphResetCmd
    stm32f10x_tim.o(i.TIM_DeInit) refers to stm32f10x_rcc.o(i.RCC_APB1PeriphResetCmd) for RCC_APB1PeriphResetCmd
    stm32f10x_tim.o(i.TIM_ETRClockMode1Config) refers to stm32f10x_tim.o(i.TIM_ETRConfig) for TIM_ETRConfig
    stm32f10x_tim.o(i.TIM_ETRClockMode2Config) refers to stm32f10x_tim.o(i.TIM_ETRConfig) for TIM_ETRConfig
    stm32f10x_tim.o(i.TIM_ICInit) refers to stm32f10x_tim.o(i.TI1_Config) for TI1_Config
    stm32f10x_tim.o(i.TIM_ICInit) refers to stm32f10x_tim.o(i.TIM_SetIC1Prescaler) for TIM_SetIC1Prescaler
    stm32f10x_tim.o(i.TIM_ICInit) refers to stm32f10x_tim.o(i.TI2_Config) for TI2_Config
    stm32f10x_tim.o(i.TIM_ICInit) refers to stm32f10x_tim.o(i.TIM_SetIC2Prescaler) for TIM_SetIC2Prescaler
    stm32f10x_tim.o(i.TIM_ICInit) refers to stm32f10x_tim.o(i.TI3_Config) for TI3_Config
    stm32f10x_tim.o(i.TIM_ICInit) refers to stm32f10x_tim.o(i.TIM_SetIC3Prescaler) for TIM_SetIC3Prescaler
    stm32f10x_tim.o(i.TIM_ICInit) refers to stm32f10x_tim.o(i.TI4_Config) for TI4_Config
    stm32f10x_tim.o(i.TIM_ICInit) refers to stm32f10x_tim.o(i.TIM_SetIC4Prescaler) for TIM_SetIC4Prescaler
    stm32f10x_tim.o(i.TIM_ITRxExternalClockConfig) refers to stm32f10x_tim.o(i.TIM_SelectInputTrigger) for TIM_SelectInputTrigger
    stm32f10x_tim.o(i.TIM_PWMIConfig) refers to stm32f10x_tim.o(i.TI1_Config) for TI1_Config
    stm32f10x_tim.o(i.TIM_PWMIConfig) refers to stm32f10x_tim.o(i.TIM_SetIC1Prescaler) for TIM_SetIC1Prescaler
    stm32f10x_tim.o(i.TIM_PWMIConfig) refers to stm32f10x_tim.o(i.TI2_Config) for TI2_Config
    stm32f10x_tim.o(i.TIM_PWMIConfig) refers to stm32f10x_tim.o(i.TIM_SetIC2Prescaler) for TIM_SetIC2Prescaler
    stm32f10x_tim.o(i.TIM_TIxExternalClockConfig) refers to stm32f10x_tim.o(i.TI2_Config) for TI2_Config
    stm32f10x_tim.o(i.TIM_TIxExternalClockConfig) refers to stm32f10x_tim.o(i.TI1_Config) for TI1_Config
    stm32f10x_tim.o(i.TIM_TIxExternalClockConfig) refers to stm32f10x_tim.o(i.TIM_SelectInputTrigger) for TIM_SelectInputTrigger
    stm32f10x_i2c.o(i.I2C_DeInit) refers to stm32f10x_rcc.o(i.RCC_APB1PeriphResetCmd) for RCC_APB1PeriphResetCmd
    stm32f10x_i2c.o(i.I2C_Init) refers to stm32f10x_rcc.o(i.RCC_GetClocksFreq) for RCC_GetClocksFreq
    board.o(i.SysTick_Handler) refers to irq.o(i.rt_interrupt_enter) for rt_interrupt_enter
    board.o(i.SysTick_Handler) refers to clock.o(i.rt_tick_increase) for rt_tick_increase
    board.o(i.SysTick_Handler) refers to irq.o(i.rt_interrupt_leave) for rt_interrupt_leave
    board.o(i.rt_heap_begin_get) refers to board.o(.bss) for rt_heap
    board.o(i.rt_heap_end_get) refers to board.o(.bss) for rt_heap
    board.o(i.rt_hw_board_init) refers to system_stm32f10x.o(i.SystemCoreClockUpdate) for SystemCoreClockUpdate
    board.o(i.rt_hw_board_init) refers to board.o(i._SysTick_Config) for _SysTick_Config
    board.o(i.rt_hw_board_init) refers to components.o(i.rt_components_board_init) for rt_components_board_init
    board.o(i.rt_hw_board_init) refers to board.o(i.rt_heap_end_get) for rt_heap_end_get
    board.o(i.rt_hw_board_init) refers to board.o(i.rt_heap_begin_get) for rt_heap_begin_get
    board.o(i.rt_hw_board_init) refers to mem.o(i.rt_system_heap_init) for rt_system_heap_init
    board.o(i.rt_hw_board_init) refers to system_stm32f10x.o(.data) for SystemCoreClock
    context_rvds.o(.text) refers to cpuport.o(i.rt_hw_hard_fault_exception) for rt_hw_hard_fault_exception
    context_rvds.o(.text) refers to cpuport.o(.data) for rt_thread_switch_interrupt_flag
    cpuport.o(i.rt_hw_exception_install) refers to cpuport.o(.data) for rt_exception_hook
    cpuport.o(i.rt_hw_hard_fault_exception) refers to cpuport.o(.data) for rt_exception_hook
    clock.o(i.rt_tick_get) refers to clock.o(.data) for rt_tick
    clock.o(i.rt_tick_increase) refers to thread.o(i.rt_thread_self) for rt_thread_self
    clock.o(i.rt_tick_increase) refers to thread.o(i.rt_thread_yield) for rt_thread_yield
    clock.o(i.rt_tick_increase) refers to timer.o(i.rt_timer_check) for rt_timer_check
    clock.o(i.rt_tick_increase) refers to clock.o(.data) for rt_tick
    clock.o(i.rt_tick_set) refers to context_rvds.o(.text) for rt_hw_interrupt_disable
    clock.o(i.rt_tick_set) refers to clock.o(.data) for rt_tick
    components.o(i.$Sub$$main) refers to context_rvds.o(.text) for rt_hw_interrupt_disable
    components.o(i.$Sub$$main) refers to components.o(i.rtthread_startup) for rtthread_startup
    components.o(i.main_thread_entry) refers to components.o(i.rt_components_init) for rt_components_init
    components.o(i.main_thread_entry) refers to main.o(i.main) for $Super$$main
    components.o(i.rt_application_init) refers to thread.o(i.rt_thread_create) for rt_thread_create
    components.o(i.rt_application_init) refers to thread.o(i.rt_thread_startup) for rt_thread_startup
    components.o(i.rt_application_init) refers to components.o(i.main_thread_entry) for main_thread_entry
    components.o(i.rt_components_board_init) refers to components.o(.rti_fn.0.end) for __rt_init_rti_board_start
    components.o(i.rt_components_board_init) refers to components.o(.rti_fn.1.end) for __rt_init_rti_board_end
    components.o(i.rt_components_init) refers to components.o(.rti_fn.1.end) for __rt_init_rti_board_end
    components.o(i.rt_components_init) refers to components.o(.rti_fn.6.end) for __rt_init_rti_end
    components.o(i.rtthread_startup) refers to context_rvds.o(.text) for rt_hw_interrupt_disable
    components.o(i.rtthread_startup) refers to board.o(i.rt_hw_board_init) for rt_hw_board_init
    components.o(i.rtthread_startup) refers to kservice.o(i.rt_show_version) for rt_show_version
    components.o(i.rtthread_startup) refers to timer.o(i.rt_system_timer_init) for rt_system_timer_init
    components.o(i.rtthread_startup) refers to scheduler.o(i.rt_system_scheduler_init) for rt_system_scheduler_init
    components.o(i.rtthread_startup) refers to components.o(i.rt_application_init) for rt_application_init
    components.o(i.rtthread_startup) refers to timer.o(i.rt_system_timer_thread_init) for rt_system_timer_thread_init
    components.o(i.rtthread_startup) refers to idle.o(i.rt_thread_idle_init) for rt_thread_idle_init
    components.o(i.rtthread_startup) refers to scheduler.o(i.rt_system_scheduler_start) for rt_system_scheduler_start
    components.o(.rti_fn.0) refers to components.o(i.rti_start) for rti_start
    components.o(.rti_fn.0.end) refers to components.o(i.rti_board_start) for rti_board_start
    components.o(.rti_fn.1.end) refers to components.o(i.rti_board_end) for rti_board_end
    components.o(.rti_fn.6.end) refers to components.o(i.rti_end) for rti_end
    device.o(i.rt_device_create) refers to mem.o(i.rt_malloc) for rt_malloc
    device.o(i.rt_device_create) refers to kservice.o(i.rt_memset) for rt_memset
    device.o(i.rt_device_destroy) refers to device.o(i.rt_device_unregister) for rt_device_unregister
    device.o(i.rt_device_destroy) refers to mem.o(i.rt_free) for rt_free
    device.o(i.rt_device_find) refers to thread.o(i.rt_thread_self) for rt_thread_self
    device.o(i.rt_device_find) refers to scheduler.o(i.rt_enter_critical) for rt_enter_critical
    device.o(i.rt_device_find) refers to object.o(i.rt_object_get_information) for rt_object_get_information
    device.o(i.rt_device_find) refers to kservice.o(i.rt_strncmp) for rt_strncmp
    device.o(i.rt_device_find) refers to scheduler.o(i.rt_exit_critical) for rt_exit_critical
    device.o(i.rt_device_read) refers to kservice.o(i.rt_set_errno) for rt_set_errno
    device.o(i.rt_device_register) refers to device.o(i.rt_device_find) for rt_device_find
    device.o(i.rt_device_register) refers to object.o(i.rt_object_init) for rt_object_init
    device.o(i.rt_device_unregister) refers to object.o(i.rt_object_detach) for rt_object_detach
    device.o(i.rt_device_write) refers to kservice.o(i.rt_set_errno) for rt_set_errno
    idle.o(i._has_defunct_thread) refers to scheduler.o(.data) for rt_thread_defunct
    idle.o(i.rt_thread_idle_entry) refers to idle.o(i.rt_thread_idle_excute) for rt_thread_idle_excute
    idle.o(i.rt_thread_idle_excute) refers to context_rvds.o(.text) for rt_hw_interrupt_disable
    idle.o(i.rt_thread_idle_excute) refers to idle.o(i._has_defunct_thread) for _has_defunct_thread
    idle.o(i.rt_thread_idle_excute) refers to scheduler.o(i.rt_enter_critical) for rt_enter_critical
    idle.o(i.rt_thread_idle_excute) refers to object.o(i.rt_object_is_systemobject) for rt_object_is_systemobject
    idle.o(i.rt_thread_idle_excute) refers to scheduler.o(i.rt_exit_critical) for rt_exit_critical
    idle.o(i.rt_thread_idle_excute) refers to mem.o(i.rt_free) for rt_free
    idle.o(i.rt_thread_idle_excute) refers to object.o(i.rt_object_delete) for rt_object_delete
    idle.o(i.rt_thread_idle_excute) refers to scheduler.o(.data) for rt_thread_defunct
    idle.o(i.rt_thread_idle_gethandler) refers to idle.o(.bss) for idle
    idle.o(i.rt_thread_idle_init) refers to thread.o(i.rt_thread_init) for rt_thread_init
    idle.o(i.rt_thread_idle_init) refers to thread.o(i.rt_thread_startup) for rt_thread_startup
    idle.o(i.rt_thread_idle_init) refers to idle.o(.bss) for rt_thread_stack
    idle.o(i.rt_thread_idle_init) refers to idle.o(i.rt_thread_idle_entry) for rt_thread_idle_entry
    ipc.o(i.rt_ipc_list_resume) refers to thread.o(i.rt_thread_resume) for rt_thread_resume
    ipc.o(i.rt_ipc_list_resume_all) refers to context_rvds.o(.text) for rt_hw_interrupt_disable
    ipc.o(i.rt_ipc_list_resume_all) refers to thread.o(i.rt_thread_resume) for rt_thread_resume
    ipc.o(i.rt_ipc_list_resume_all) refers to ipc.o(i.rt_list_isempty) for rt_list_isempty
    ipc.o(i.rt_ipc_list_suspend) refers to thread.o(i.rt_thread_suspend) for rt_thread_suspend
    ipc.o(i.rt_ipc_list_suspend) refers to ipc.o(i.rt_list_insert_before) for rt_list_insert_before
    ipc.o(i.rt_ipc_object_init) refers to ipc.o(i.rt_list_init) for rt_list_init
    ipc.o(i.rt_mb_control) refers to context_rvds.o(.text) for rt_hw_interrupt_disable
    ipc.o(i.rt_mb_control) refers to ipc.o(i.rt_ipc_list_resume_all) for rt_ipc_list_resume_all
    ipc.o(i.rt_mb_control) refers to scheduler.o(i.rt_schedule) for rt_schedule
    ipc.o(i.rt_mb_create) refers to object.o(i.rt_object_allocate) for rt_object_allocate
    ipc.o(i.rt_mb_create) refers to ipc.o(i.rt_ipc_object_init) for rt_ipc_object_init
    ipc.o(i.rt_mb_create) refers to mem.o(i.rt_malloc) for rt_malloc
    ipc.o(i.rt_mb_create) refers to object.o(i.rt_object_delete) for rt_object_delete
    ipc.o(i.rt_mb_create) refers to ipc.o(i.rt_list_init) for rt_list_init
    ipc.o(i.rt_mb_delete) refers to ipc.o(i.rt_ipc_list_resume_all) for rt_ipc_list_resume_all
    ipc.o(i.rt_mb_delete) refers to mem.o(i.rt_free) for rt_free
    ipc.o(i.rt_mb_delete) refers to object.o(i.rt_object_delete) for rt_object_delete
    ipc.o(i.rt_mb_detach) refers to ipc.o(i.rt_ipc_list_resume_all) for rt_ipc_list_resume_all
    ipc.o(i.rt_mb_detach) refers to object.o(i.rt_object_detach) for rt_object_detach
    ipc.o(i.rt_mb_init) refers to object.o(i.rt_object_init) for rt_object_init
    ipc.o(i.rt_mb_init) refers to ipc.o(i.rt_ipc_object_init) for rt_ipc_object_init
    ipc.o(i.rt_mb_init) refers to ipc.o(i.rt_list_init) for rt_list_init
    ipc.o(i.rt_mb_recv) refers to thread.o(i.rt_thread_self) for rt_thread_self
    ipc.o(i.rt_mb_recv) refers to context_rvds.o(.text) for rt_hw_interrupt_disable
    ipc.o(i.rt_mb_recv) refers to ipc.o(i.rt_ipc_list_suspend) for rt_ipc_list_suspend
    ipc.o(i.rt_mb_recv) refers to clock.o(i.rt_tick_get) for rt_tick_get
    ipc.o(i.rt_mb_recv) refers to timer.o(i.rt_timer_control) for rt_timer_control
    ipc.o(i.rt_mb_recv) refers to timer.o(i.rt_timer_start) for rt_timer_start
    ipc.o(i.rt_mb_recv) refers to scheduler.o(i.rt_schedule) for rt_schedule
    ipc.o(i.rt_mb_recv) refers to ipc.o(i.rt_list_isempty) for rt_list_isempty
    ipc.o(i.rt_mb_recv) refers to ipc.o(i.rt_ipc_list_resume) for rt_ipc_list_resume
    ipc.o(i.rt_mb_send) refers to ipc.o(i.rt_mb_send_wait) for rt_mb_send_wait
    ipc.o(i.rt_mb_send_wait) refers to thread.o(i.rt_thread_self) for rt_thread_self
    ipc.o(i.rt_mb_send_wait) refers to context_rvds.o(.text) for rt_hw_interrupt_disable
    ipc.o(i.rt_mb_send_wait) refers to ipc.o(i.rt_ipc_list_suspend) for rt_ipc_list_suspend
    ipc.o(i.rt_mb_send_wait) refers to clock.o(i.rt_tick_get) for rt_tick_get
    ipc.o(i.rt_mb_send_wait) refers to timer.o(i.rt_timer_control) for rt_timer_control
    ipc.o(i.rt_mb_send_wait) refers to timer.o(i.rt_timer_start) for rt_timer_start
    ipc.o(i.rt_mb_send_wait) refers to scheduler.o(i.rt_schedule) for rt_schedule
    ipc.o(i.rt_mb_send_wait) refers to ipc.o(i.rt_list_isempty) for rt_list_isempty
    ipc.o(i.rt_mb_send_wait) refers to ipc.o(i.rt_ipc_list_resume) for rt_ipc_list_resume
    ipc.o(i.rt_mutex_create) refers to object.o(i.rt_object_allocate) for rt_object_allocate
    ipc.o(i.rt_mutex_create) refers to ipc.o(i.rt_ipc_object_init) for rt_ipc_object_init
    ipc.o(i.rt_mutex_delete) refers to ipc.o(i.rt_ipc_list_resume_all) for rt_ipc_list_resume_all
    ipc.o(i.rt_mutex_delete) refers to object.o(i.rt_object_delete) for rt_object_delete
    ipc.o(i.rt_mutex_detach) refers to ipc.o(i.rt_ipc_list_resume_all) for rt_ipc_list_resume_all
    ipc.o(i.rt_mutex_detach) refers to object.o(i.rt_object_detach) for rt_object_detach
    ipc.o(i.rt_mutex_init) refers to object.o(i.rt_object_init) for rt_object_init
    ipc.o(i.rt_mutex_init) refers to ipc.o(i.rt_ipc_object_init) for rt_ipc_object_init
    ipc.o(i.rt_mutex_release) refers to thread.o(i.rt_thread_self) for rt_thread_self
    ipc.o(i.rt_mutex_release) refers to context_rvds.o(.text) for rt_hw_interrupt_disable
    ipc.o(i.rt_mutex_release) refers to thread.o(i.rt_thread_control) for rt_thread_control
    ipc.o(i.rt_mutex_release) refers to ipc.o(i.rt_list_isempty) for rt_list_isempty
    ipc.o(i.rt_mutex_release) refers to ipc.o(i.rt_ipc_list_resume) for rt_ipc_list_resume
    ipc.o(i.rt_mutex_release) refers to scheduler.o(i.rt_schedule) for rt_schedule
    ipc.o(i.rt_mutex_take) refers to thread.o(i.rt_thread_self) for rt_thread_self
    ipc.o(i.rt_mutex_take) refers to context_rvds.o(.text) for rt_hw_interrupt_disable
    ipc.o(i.rt_mutex_take) refers to thread.o(i.rt_thread_control) for rt_thread_control
    ipc.o(i.rt_mutex_take) refers to ipc.o(i.rt_ipc_list_suspend) for rt_ipc_list_suspend
    ipc.o(i.rt_mutex_take) refers to timer.o(i.rt_timer_control) for rt_timer_control
    ipc.o(i.rt_mutex_take) refers to timer.o(i.rt_timer_start) for rt_timer_start
    ipc.o(i.rt_mutex_take) refers to scheduler.o(i.rt_schedule) for rt_schedule
    ipc.o(i.rt_sem_control) refers to context_rvds.o(.text) for rt_hw_interrupt_disable
    ipc.o(i.rt_sem_control) refers to ipc.o(i.rt_ipc_list_resume_all) for rt_ipc_list_resume_all
    ipc.o(i.rt_sem_control) refers to scheduler.o(i.rt_schedule) for rt_schedule
    ipc.o(i.rt_sem_create) refers to object.o(i.rt_object_allocate) for rt_object_allocate
    ipc.o(i.rt_sem_create) refers to ipc.o(i.rt_ipc_object_init) for rt_ipc_object_init
    ipc.o(i.rt_sem_delete) refers to ipc.o(i.rt_ipc_list_resume_all) for rt_ipc_list_resume_all
    ipc.o(i.rt_sem_delete) refers to object.o(i.rt_object_delete) for rt_object_delete
    ipc.o(i.rt_sem_detach) refers to ipc.o(i.rt_ipc_list_resume_all) for rt_ipc_list_resume_all
    ipc.o(i.rt_sem_detach) refers to object.o(i.rt_object_detach) for rt_object_detach
    ipc.o(i.rt_sem_init) refers to object.o(i.rt_object_init) for rt_object_init
    ipc.o(i.rt_sem_init) refers to ipc.o(i.rt_ipc_object_init) for rt_ipc_object_init
    ipc.o(i.rt_sem_release) refers to context_rvds.o(.text) for rt_hw_interrupt_disable
    ipc.o(i.rt_sem_release) refers to ipc.o(i.rt_list_isempty) for rt_list_isempty
    ipc.o(i.rt_sem_release) refers to ipc.o(i.rt_ipc_list_resume) for rt_ipc_list_resume
    ipc.o(i.rt_sem_release) refers to scheduler.o(i.rt_schedule) for rt_schedule
    ipc.o(i.rt_sem_take) refers to context_rvds.o(.text) for rt_hw_interrupt_disable
    ipc.o(i.rt_sem_take) refers to thread.o(i.rt_thread_self) for rt_thread_self
    ipc.o(i.rt_sem_take) refers to ipc.o(i.rt_ipc_list_suspend) for rt_ipc_list_suspend
    ipc.o(i.rt_sem_take) refers to timer.o(i.rt_timer_control) for rt_timer_control
    ipc.o(i.rt_sem_take) refers to timer.o(i.rt_timer_start) for rt_timer_start
    ipc.o(i.rt_sem_take) refers to scheduler.o(i.rt_schedule) for rt_schedule
    ipc.o(i.rt_sem_trytake) refers to ipc.o(i.rt_sem_take) for rt_sem_take
    irq.o(i.rt_interrupt_enter) refers to context_rvds.o(.text) for rt_hw_interrupt_disable
    irq.o(i.rt_interrupt_enter) refers to irq.o(.data) for rt_interrupt_nest
    irq.o(i.rt_interrupt_get_nest) refers to irq.o(.data) for rt_interrupt_nest
    irq.o(i.rt_interrupt_leave) refers to context_rvds.o(.text) for rt_hw_interrupt_disable
    irq.o(i.rt_interrupt_leave) refers to irq.o(.data) for rt_interrupt_nest
    kservice.o(i.__rt_ffs) refers to kservice.o(.constdata) for __lowest_bit_bitmap
    kservice.o(i._rt_errno) refers to irq.o(i.rt_interrupt_get_nest) for rt_interrupt_get_nest
    kservice.o(i._rt_errno) refers to thread.o(i.rt_thread_self) for rt_thread_self
    kservice.o(i._rt_errno) refers to kservice.o(.data) for __rt_errno
    kservice.o(i.print_number) refers to kservice.o(.constdata) for large_digits
    kservice.o(i.rt_free_align) refers to mem.o(i.rt_free) for rt_free
    kservice.o(i.rt_get_errno) refers to irq.o(i.rt_interrupt_get_nest) for rt_interrupt_get_nest
    kservice.o(i.rt_get_errno) refers to thread.o(i.rt_thread_self) for rt_thread_self
    kservice.o(i.rt_get_errno) refers to kservice.o(.data) for __rt_errno
    kservice.o(i.rt_malloc_align) refers to mem.o(i.rt_malloc) for rt_malloc
    kservice.o(i.rt_set_errno) refers to irq.o(i.rt_interrupt_get_nest) for rt_interrupt_get_nest
    kservice.o(i.rt_set_errno) refers to thread.o(i.rt_thread_self) for rt_thread_self
    kservice.o(i.rt_set_errno) refers to kservice.o(.data) for __rt_errno
    kservice.o(i.rt_snprintf) refers to kservice.o(i.rt_vsnprintf) for rt_vsnprintf
    kservice.o(i.rt_sprintf) refers to kservice.o(i.rt_vsprintf) for rt_vsprintf
    kservice.o(i.rt_strdup) refers to kservice.o(i.rt_strlen) for rt_strlen
    kservice.o(i.rt_strdup) refers to mem.o(i.rt_malloc) for rt_malloc
    kservice.o(i.rt_strdup) refers to kservice.o(i.rt_memcpy) for rt_memcpy
    kservice.o(i.rt_strstr) refers to kservice.o(i.rt_strlen) for rt_strlen
    kservice.o(i.rt_strstr) refers to kservice.o(i.rt_memcmp) for rt_memcmp
    kservice.o(i.rt_vsnprintf) refers to kservice.o(i.skip_atoi) for skip_atoi
    kservice.o(i.rt_vsnprintf) refers to kservice.o(i.rt_strlen) for rt_strlen
    kservice.o(i.rt_vsnprintf) refers to kservice.o(i.print_number) for print_number
    kservice.o(i.rt_vsprintf) refers to kservice.o(i.rt_vsnprintf) for rt_vsnprintf
    mem.o(i.plug_holes) refers to mem.o(.data) for heap_ptr
    mem.o(i.rt_calloc) refers to mem.o(i.rt_malloc) for rt_malloc
    mem.o(i.rt_calloc) refers to kservice.o(i.rt_memset) for rt_memset
    mem.o(i.rt_free) refers to ipc.o(i.rt_sem_take) for rt_sem_take
    mem.o(i.rt_free) refers to mem.o(i.plug_holes) for plug_holes
    mem.o(i.rt_free) refers to ipc.o(i.rt_sem_release) for rt_sem_release
    mem.o(i.rt_free) refers to mem.o(.data) for heap_ptr
    mem.o(i.rt_free) refers to mem.o(.bss) for heap_sem
    mem.o(i.rt_malloc) refers to ipc.o(i.rt_sem_take) for rt_sem_take
    mem.o(i.rt_malloc) refers to ipc.o(i.rt_sem_release) for rt_sem_release
    mem.o(i.rt_malloc) refers to mem.o(.data) for mem_size_aligned
    mem.o(i.rt_malloc) refers to mem.o(.bss) for heap_sem
    mem.o(i.rt_memory_info) refers to mem.o(.data) for mem_size_aligned
    mem.o(i.rt_realloc) refers to mem.o(i.rt_free) for rt_free
    mem.o(i.rt_realloc) refers to mem.o(i.rt_malloc) for rt_malloc
    mem.o(i.rt_realloc) refers to ipc.o(i.rt_sem_take) for rt_sem_take
    mem.o(i.rt_realloc) refers to ipc.o(i.rt_sem_release) for rt_sem_release
    mem.o(i.rt_realloc) refers to mem.o(i.plug_holes) for plug_holes
    mem.o(i.rt_realloc) refers to kservice.o(i.rt_memcpy) for rt_memcpy
    mem.o(i.rt_realloc) refers to mem.o(.data) for mem_size_aligned
    mem.o(i.rt_realloc) refers to mem.o(.bss) for heap_sem
    mem.o(i.rt_system_heap_init) refers to ipc.o(i.rt_sem_init) for rt_sem_init
    mem.o(i.rt_system_heap_init) refers to mem.o(.data) for mem_size_aligned
    mem.o(i.rt_system_heap_init) refers to mem.o(.bss) for heap_sem
    object.o(i.rt_object_allocate) refers to object.o(i.rt_object_get_information) for rt_object_get_information
    object.o(i.rt_object_allocate) refers to mem.o(i.rt_malloc) for rt_malloc
    object.o(i.rt_object_allocate) refers to kservice.o(i.rt_strncpy) for rt_strncpy
    object.o(i.rt_object_allocate) refers to context_rvds.o(.text) for rt_hw_interrupt_disable
    object.o(i.rt_object_allocate) refers to object.o(i.rt_list_insert_after) for rt_list_insert_after
    object.o(i.rt_object_delete) refers to context_rvds.o(.text) for rt_hw_interrupt_disable
    object.o(i.rt_object_delete) refers to object.o(i.rt_list_remove) for rt_list_remove
    object.o(i.rt_object_delete) refers to mem.o(i.rt_free) for rt_free
    object.o(i.rt_object_detach) refers to context_rvds.o(.text) for rt_hw_interrupt_disable
    object.o(i.rt_object_detach) refers to object.o(i.rt_list_remove) for rt_list_remove
    object.o(i.rt_object_find) refers to scheduler.o(i.rt_enter_critical) for rt_enter_critical
    object.o(i.rt_object_find) refers to object.o(i.rt_object_get_information) for rt_object_get_information
    object.o(i.rt_object_find) refers to kservice.o(i.rt_strncmp) for rt_strncmp
    object.o(i.rt_object_find) refers to scheduler.o(i.rt_exit_critical) for rt_exit_critical
    object.o(i.rt_object_get_information) refers to object.o(.data) for rt_object_container
    object.o(i.rt_object_init) refers to object.o(i.rt_object_get_information) for rt_object_get_information
    object.o(i.rt_object_init) refers to kservice.o(i.rt_strncpy) for rt_strncpy
    object.o(i.rt_object_init) refers to context_rvds.o(.text) for rt_hw_interrupt_disable
    object.o(i.rt_object_init) refers to object.o(i.rt_list_insert_after) for rt_list_insert_after
    scheduler.o(i.rt_critical_level) refers to scheduler.o(.data) for rt_scheduler_lock_nest
    scheduler.o(i.rt_enter_critical) refers to context_rvds.o(.text) for rt_hw_interrupt_disable
    scheduler.o(i.rt_enter_critical) refers to scheduler.o(.data) for rt_scheduler_lock_nest
    scheduler.o(i.rt_exit_critical) refers to context_rvds.o(.text) for rt_hw_interrupt_disable
    scheduler.o(i.rt_exit_critical) refers to scheduler.o(i.rt_schedule) for rt_schedule
    scheduler.o(i.rt_exit_critical) refers to scheduler.o(.data) for rt_scheduler_lock_nest
    scheduler.o(i.rt_schedule) refers to context_rvds.o(.text) for rt_hw_interrupt_disable
    scheduler.o(i.rt_schedule) refers to kservice.o(i.__rt_ffs) for __rt_ffs
    scheduler.o(i.rt_schedule) refers to scheduler.o(.data) for rt_scheduler_lock_nest
    scheduler.o(i.rt_schedule) refers to scheduler.o(.bss) for rt_thread_priority_table
    scheduler.o(i.rt_schedule) refers to irq.o(.data) for rt_interrupt_nest
    scheduler.o(i.rt_schedule_insert_thread) refers to context_rvds.o(.text) for rt_hw_interrupt_disable
    scheduler.o(i.rt_schedule_insert_thread) refers to scheduler.o(.bss) for rt_thread_priority_table
    scheduler.o(i.rt_schedule_insert_thread) refers to scheduler.o(.data) for rt_thread_ready_priority_group
    scheduler.o(i.rt_schedule_remove_thread) refers to context_rvds.o(.text) for rt_hw_interrupt_disable
    scheduler.o(i.rt_schedule_remove_thread) refers to scheduler.o(.bss) for rt_thread_priority_table
    scheduler.o(i.rt_schedule_remove_thread) refers to scheduler.o(.data) for rt_thread_ready_priority_group
    scheduler.o(i.rt_system_scheduler_init) refers to scheduler.o(i.rt_list_init) for rt_list_init
    scheduler.o(i.rt_system_scheduler_init) refers to scheduler.o(.data) for rt_scheduler_lock_nest
    scheduler.o(i.rt_system_scheduler_init) refers to scheduler.o(.bss) for rt_thread_priority_table
    scheduler.o(i.rt_system_scheduler_start) refers to kservice.o(i.__rt_ffs) for __rt_ffs
    scheduler.o(i.rt_system_scheduler_start) refers to context_rvds.o(.text) for rt_hw_context_switch_to
    scheduler.o(i.rt_system_scheduler_start) refers to scheduler.o(.data) for rt_thread_ready_priority_group
    scheduler.o(i.rt_system_scheduler_start) refers to scheduler.o(.bss) for rt_thread_priority_table
    thread.o(i._rt_thread_init) refers to kservice.o(i.rt_memset) for rt_memset
    thread.o(i._rt_thread_init) refers to cpuport.o(i.rt_hw_stack_init) for rt_hw_stack_init
    thread.o(i._rt_thread_init) refers to timer.o(i.rt_timer_init) for rt_timer_init
    thread.o(i._rt_thread_init) refers to thread.o(i.rt_thread_exit) for rt_thread_exit
    thread.o(i._rt_thread_init) refers to thread.o(i.rt_thread_timeout) for rt_thread_timeout
    thread.o(i.rt_thread_control) refers to context_rvds.o(.text) for rt_hw_interrupt_disable
    thread.o(i.rt_thread_control) refers to scheduler.o(i.rt_schedule_remove_thread) for rt_schedule_remove_thread
    thread.o(i.rt_thread_control) refers to scheduler.o(i.rt_schedule_insert_thread) for rt_schedule_insert_thread
    thread.o(i.rt_thread_control) refers to thread.o(i.rt_thread_startup) for rt_thread_startup
    thread.o(i.rt_thread_control) refers to thread.o(i.rt_thread_delete) for rt_thread_delete
    thread.o(i.rt_thread_create) refers to object.o(i.rt_object_allocate) for rt_object_allocate
    thread.o(i.rt_thread_create) refers to mem.o(i.rt_malloc) for rt_malloc
    thread.o(i.rt_thread_create) refers to object.o(i.rt_object_delete) for rt_object_delete
    thread.o(i.rt_thread_create) refers to thread.o(i._rt_thread_init) for _rt_thread_init
    thread.o(i.rt_thread_delay) refers to thread.o(i.rt_thread_sleep) for rt_thread_sleep
    thread.o(i.rt_thread_delete) refers to scheduler.o(i.rt_schedule_remove_thread) for rt_schedule_remove_thread
    thread.o(i.rt_thread_delete) refers to timer.o(i.rt_timer_detach) for rt_timer_detach
    thread.o(i.rt_thread_delete) refers to context_rvds.o(.text) for rt_hw_interrupt_disable
    thread.o(i.rt_thread_delete) refers to thread.o(i.rt_list_insert_after) for rt_list_insert_after
    thread.o(i.rt_thread_delete) refers to scheduler.o(.data) for rt_thread_defunct
    thread.o(i.rt_thread_detach) refers to scheduler.o(i.rt_schedule_remove_thread) for rt_schedule_remove_thread
    thread.o(i.rt_thread_detach) refers to timer.o(i.rt_timer_detach) for rt_timer_detach
    thread.o(i.rt_thread_detach) refers to object.o(i.rt_object_detach) for rt_object_detach
    thread.o(i.rt_thread_detach) refers to context_rvds.o(.text) for rt_hw_interrupt_disable
    thread.o(i.rt_thread_detach) refers to thread.o(i.rt_list_insert_after) for rt_list_insert_after
    thread.o(i.rt_thread_detach) refers to scheduler.o(.data) for rt_thread_defunct
    thread.o(i.rt_thread_exit) refers to context_rvds.o(.text) for rt_hw_interrupt_disable
    thread.o(i.rt_thread_exit) refers to scheduler.o(i.rt_schedule_remove_thread) for rt_schedule_remove_thread
    thread.o(i.rt_thread_exit) refers to timer.o(i.rt_timer_detach) for rt_timer_detach
    thread.o(i.rt_thread_exit) refers to object.o(i.rt_object_is_systemobject) for rt_object_is_systemobject
    thread.o(i.rt_thread_exit) refers to object.o(i.rt_object_detach) for rt_object_detach
    thread.o(i.rt_thread_exit) refers to thread.o(i.rt_list_insert_after) for rt_list_insert_after
    thread.o(i.rt_thread_exit) refers to scheduler.o(i.rt_schedule) for rt_schedule
    thread.o(i.rt_thread_exit) refers to scheduler.o(.data) for rt_current_thread
    thread.o(i.rt_thread_find) refers to thread.o(i.rt_thread_self) for rt_thread_self
    thread.o(i.rt_thread_find) refers to scheduler.o(i.rt_enter_critical) for rt_enter_critical
    thread.o(i.rt_thread_find) refers to object.o(i.rt_object_get_information) for rt_object_get_information
    thread.o(i.rt_thread_find) refers to kservice.o(i.rt_strncmp) for rt_strncmp
    thread.o(i.rt_thread_find) refers to scheduler.o(i.rt_exit_critical) for rt_exit_critical
    thread.o(i.rt_thread_init) refers to object.o(i.rt_object_init) for rt_object_init
    thread.o(i.rt_thread_init) refers to thread.o(i._rt_thread_init) for _rt_thread_init
    thread.o(i.rt_thread_resume) refers to context_rvds.o(.text) for rt_hw_interrupt_disable
    thread.o(i.rt_thread_resume) refers to thread.o(i.rt_list_remove) for rt_list_remove
    thread.o(i.rt_thread_resume) refers to timer.o(i.rt_timer_stop) for rt_timer_stop
    thread.o(i.rt_thread_resume) refers to scheduler.o(i.rt_schedule_insert_thread) for rt_schedule_insert_thread
    thread.o(i.rt_thread_self) refers to scheduler.o(.data) for rt_current_thread
    thread.o(i.rt_thread_sleep) refers to context_rvds.o(.text) for rt_hw_interrupt_disable
    thread.o(i.rt_thread_sleep) refers to thread.o(i.rt_thread_suspend) for rt_thread_suspend
    thread.o(i.rt_thread_sleep) refers to timer.o(i.rt_timer_control) for rt_timer_control
    thread.o(i.rt_thread_sleep) refers to timer.o(i.rt_timer_start) for rt_timer_start
    thread.o(i.rt_thread_sleep) refers to scheduler.o(i.rt_schedule) for rt_schedule
    thread.o(i.rt_thread_sleep) refers to scheduler.o(.data) for rt_current_thread
    thread.o(i.rt_thread_startup) refers to thread.o(i.rt_thread_resume) for rt_thread_resume
    thread.o(i.rt_thread_startup) refers to thread.o(i.rt_thread_self) for rt_thread_self
    thread.o(i.rt_thread_startup) refers to scheduler.o(i.rt_schedule) for rt_schedule
    thread.o(i.rt_thread_suspend) refers to context_rvds.o(.text) for rt_hw_interrupt_disable
    thread.o(i.rt_thread_suspend) refers to scheduler.o(i.rt_schedule_remove_thread) for rt_schedule_remove_thread
    thread.o(i.rt_thread_suspend) refers to timer.o(i.rt_timer_stop) for rt_timer_stop
    thread.o(i.rt_thread_timeout) refers to thread.o(i.rt_list_remove) for rt_list_remove
    thread.o(i.rt_thread_timeout) refers to scheduler.o(i.rt_schedule_insert_thread) for rt_schedule_insert_thread
    thread.o(i.rt_thread_timeout) refers to scheduler.o(i.rt_schedule) for rt_schedule
    thread.o(i.rt_thread_yield) refers to context_rvds.o(.text) for rt_hw_interrupt_disable
    thread.o(i.rt_thread_yield) refers to thread.o(i.rt_list_remove) for rt_list_remove
    thread.o(i.rt_thread_yield) refers to scheduler.o(i.rt_schedule) for rt_schedule
    thread.o(i.rt_thread_yield) refers to scheduler.o(.data) for rt_current_thread
    thread.o(i.rt_thread_yield) refers to scheduler.o(.bss) for rt_thread_priority_table
    timer.o(i._rt_timer_init) refers to timer.o(i.rt_list_init) for rt_list_init
    timer.o(i.rt_system_timer_init) refers to timer.o(i.rt_list_init) for rt_list_init
    timer.o(i.rt_system_timer_init) refers to timer.o(.data) for rt_timer_list
    timer.o(i.rt_timer_check) refers to clock.o(i.rt_tick_get) for rt_tick_get
    timer.o(i.rt_timer_check) refers to context_rvds.o(.text) for rt_hw_interrupt_disable
    timer.o(i.rt_timer_check) refers to timer.o(i._rt_timer_remove) for _rt_timer_remove
    timer.o(i.rt_timer_check) refers to timer.o(i.rt_timer_start) for rt_timer_start
    timer.o(i.rt_timer_check) refers to timer.o(i.rt_list_isempty) for rt_list_isempty
    timer.o(i.rt_timer_check) refers to timer.o(.data) for rt_timer_list
    timer.o(i.rt_timer_create) refers to object.o(i.rt_object_allocate) for rt_object_allocate
    timer.o(i.rt_timer_create) refers to timer.o(i._rt_timer_init) for _rt_timer_init
    timer.o(i.rt_timer_delete) refers to context_rvds.o(.text) for rt_hw_interrupt_disable
    timer.o(i.rt_timer_delete) refers to timer.o(i._rt_timer_remove) for _rt_timer_remove
    timer.o(i.rt_timer_delete) refers to object.o(i.rt_object_delete) for rt_object_delete
    timer.o(i.rt_timer_detach) refers to context_rvds.o(.text) for rt_hw_interrupt_disable
    timer.o(i.rt_timer_detach) refers to timer.o(i._rt_timer_remove) for _rt_timer_remove
    timer.o(i.rt_timer_detach) refers to object.o(i.rt_object_detach) for rt_object_detach
    timer.o(i.rt_timer_init) refers to object.o(i.rt_object_init) for rt_object_init
    timer.o(i.rt_timer_init) refers to timer.o(i._rt_timer_init) for _rt_timer_init
    timer.o(i.rt_timer_list_next_timeout) refers to timer.o(i.rt_list_isempty) for rt_list_isempty
    timer.o(i.rt_timer_next_timeout_tick) refers to timer.o(i.rt_timer_list_next_timeout) for rt_timer_list_next_timeout
    timer.o(i.rt_timer_next_timeout_tick) refers to timer.o(.data) for rt_timer_list
    timer.o(i.rt_timer_start) refers to context_rvds.o(.text) for rt_hw_interrupt_disable
    timer.o(i.rt_timer_start) refers to timer.o(i._rt_timer_remove) for _rt_timer_remove
    timer.o(i.rt_timer_start) refers to clock.o(i.rt_tick_get) for rt_tick_get
    timer.o(i.rt_timer_start) refers to timer.o(i.rt_list_insert_after) for rt_list_insert_after
    timer.o(i.rt_timer_start) refers to timer.o(.data) for rt_timer_list
    timer.o(i.rt_timer_stop) refers to context_rvds.o(.text) for rt_hw_interrupt_disable
    timer.o(i.rt_timer_stop) refers to timer.o(i._rt_timer_remove) for _rt_timer_remove
    __2snprintf.o(.text) refers to _printf_char_common.o(.text) for _printf_char_common
    __2snprintf.o(.text) refers to _sputc.o(.text) for _sputc
    __2snprintf.o(.text) refers to _snputc.o(.text) for _snputc
    noretval__2snprintf.o(.text) refers to _printf_char_common.o(.text) for _printf_char_common
    noretval__2snprintf.o(.text) refers to _sputc.o(.text) for _sputc
    noretval__2snprintf.o(.text) refers to _snputc.o(.text) for _snputc
    __printf.o(.text) refers to _printf_percent.o(.ARM.Collect$$_printf_percent$$00000000) for _printf_percent
    _printf_str.o(.text) refers (Special) to _printf_char.o(.text) for _printf_cs_common
    _printf_str.o(.text) refers (Weak) to _printf_pad.o(.text) for _printf_pre_padding
    _printf_str.o(.text) refers (Weak) to _printf_pad.o(.text) for _printf_post_padding
    _printf_dec.o(.text) refers to _printf_intcommon.o(.text) for _printf_int_common
    _printf_hex_ll.o(.text) refers to _printf_intcommon.o(.text) for _printf_int_common
    _printf_hex_ll.o(.text) refers to _printf_hex_ll.o(.constdata) for .constdata
    _printf_hex_int.o(.text) refers to _printf_intcommon.o(.text) for _printf_int_common
    _printf_hex_int.o(.text) refers to _printf_hex_int.o(.constdata) for .constdata
    _printf_hex_int_ll.o(.text) refers to _printf_intcommon.o(.text) for _printf_int_common
    _printf_hex_int_ll.o(.text) refers to _printf_hex_int_ll.o(.constdata) for .constdata
    _printf_hex_ptr.o(.text) refers to _printf_intcommon.o(.text) for _printf_int_common
    _printf_hex_ptr.o(.text) refers to _printf_hex_ptr.o(.constdata) for .constdata
    _printf_hex_int_ptr.o(.text) refers to _printf_intcommon.o(.text) for _printf_int_common
    _printf_hex_int_ptr.o(.text) refers to _printf_hex_int_ptr.o(.constdata) for .constdata
    _printf_hex_ll_ptr.o(.text) refers to _printf_intcommon.o(.text) for _printf_int_common
    _printf_hex_ll_ptr.o(.text) refers to _printf_hex_ll_ptr.o(.constdata) for .constdata
    _printf_hex_int_ll_ptr.o(.text) refers to _printf_intcommon.o(.text) for _printf_int_common
    _printf_hex_int_ll_ptr.o(.text) refers to _printf_hex_int_ll_ptr.o(.constdata) for .constdata
    __printf_flags.o(.text) refers to _printf_percent.o(.ARM.Collect$$_printf_percent$$00000000) for _printf_percent
    __printf_flags.o(.text) refers to __printf_flags.o(.constdata) for .constdata
    __printf_ss.o(.text) refers to _printf_percent.o(.ARM.Collect$$_printf_percent$$00000000) for _printf_percent
    __printf_flags_ss.o(.text) refers to _printf_percent.o(.ARM.Collect$$_printf_percent$$00000000) for _printf_percent
    __printf_flags_ss.o(.text) refers to __printf_flags_ss.o(.constdata) for .constdata
    __printf_wp.o(.text) refers to __printf_wp.o(i._is_digit) for _is_digit
    __printf_wp.o(.text) refers to _printf_percent.o(.ARM.Collect$$_printf_percent$$00000000) for _printf_percent
    __printf_flags_wp.o(.text) refers to __printf_wp.o(i._is_digit) for _is_digit
    __printf_flags_wp.o(.text) refers to _printf_percent.o(.ARM.Collect$$_printf_percent$$00000000) for _printf_percent
    __printf_flags_wp.o(.text) refers to __printf_flags_wp.o(.constdata) for .constdata
    __printf_ss_wp.o(.text) refers to __printf_wp.o(i._is_digit) for _is_digit
    __printf_ss_wp.o(.text) refers to _printf_percent.o(.ARM.Collect$$_printf_percent$$00000000) for _printf_percent
    __printf_flags_ss_wp.o(.text) refers to __printf_wp.o(i._is_digit) for _is_digit
    __printf_flags_ss_wp.o(.text) refers to _printf_percent.o(.ARM.Collect$$_printf_percent$$00000000) for _printf_percent
    __printf_flags_ss_wp.o(.text) refers to __printf_flags_ss_wp.o(.constdata) for .constdata
    _printf_s.o(.ARM.Collect$$_printf_percent$$00000014) refers (Weak) to _printf_char.o(.text) for _printf_string
    _printf_x.o(.ARM.Collect$$_printf_percent$$0000000C) refers (Weak) to _printf_hex_int.o(.text) for _printf_int_hex
    _printf_d.o(.ARM.Collect$$_printf_percent$$00000009) refers (Weak) to _printf_dec.o(.text) for _printf_int_dec
    _printf_percent.o(.ARM.Collect$$_printf_percent$$00000000) refers (Special) to _printf_percent_end.o(.ARM.Collect$$_printf_percent$$00000017) for _printf_percent_end
    __0sscanf.o(.text) refers to scanf_char.o(.text) for __vfscanf_char
    __0sscanf.o(.text) refers to _sgetc.o(.text) for _sgetc
    _scanf_int.o(.text) refers to _chval.o(.text) for _chval
    rt_memcpy_v6.o(.text) refers to rt_memcpy_w.o(.text) for __aeabi_memcpy4
    rt_memclr.o(.text) refers to rt_memclr_w.o(.text) for _memset_w
    __main.o(!!!main) refers to __rtentry.o(.ARM.Collect$$rtentry$$00000000) for __rt_entry
    __rtentry.o(.ARM.Collect$$rtentry$$00000000) refers (Special) to __rtentry2.o(.ARM.Collect$$rtentry$$0000000A) for __rt_entry_li
    __rtentry.o(.ARM.Collect$$rtentry$$00000000) refers (Special) to __rtentry2.o(.ARM.Collect$$rtentry$$0000000D) for __rt_entry_main
    __rtentry.o(.ARM.Collect$$rtentry$$00000000) refers (Special) to __rtentry2.o(.ARM.Collect$$rtentry$$0000000C) for __rt_entry_postli_1
    __rtentry.o(.ARM.Collect$$rtentry$$00000000) refers (Special) to __rtentry2.o(.ARM.Collect$$rtentry$$00000009) for __rt_entry_postsh_1
    __rtentry.o(.ARM.Collect$$rtentry$$00000000) refers (Special) to __rtentry2.o(.ARM.Collect$$rtentry$$00000002) for __rt_entry_presh_1
    __rtentry.o(.ARM.Collect$$rtentry$$00000000) refers (Special) to __rtentry4.o(.ARM.Collect$$rtentry$$00000004) for __rt_entry_sh
    _printf_intcommon.o(.text) refers (Weak) to _printf_pad.o(.text) for _printf_pre_padding
    _printf_intcommon.o(.text) refers (Weak) to _printf_pad.o(.text) for _printf_pre_padding
    _printf_intcommon.o(.text) refers (Weak) to _printf_pad.o(.text) for _printf_post_padding
    _printf_char_common.o(.text) refers to __printf_flags_wp.o(.text) for __printf
    _printf_char.o(.text) refers (Weak) to _printf_str.o(.text) for _printf_str
    scanf_char.o(.text) refers to _scanf.o(.text) for __vfscanf
    scanf_char.o(.text) refers to isspace.o(.text) for isspace
    __rtentry2.o(.ARM.Collect$$rtentry$$00000008) refers to boardinit2.o(.text) for _platform_post_stackheap_init
    __rtentry2.o(.ARM.Collect$$rtentry$$0000000A) refers to libinit.o(.ARM.Collect$$libinit$$00000000) for __rt_lib_init
    __rtentry2.o(.ARM.Collect$$rtentry$$0000000B) refers to boardinit3.o(.text) for _platform_post_lib_init
    __rtentry2.o(.ARM.Collect$$rtentry$$0000000D) refers to components.o(i.$Sub$$main) for main
    __rtentry2.o(.ARM.Collect$$rtentry$$0000000D) refers to exit.o(.text) for exit
    __rtentry2.o(.ARM.exidx) refers to __rtentry2.o(.ARM.Collect$$rtentry$$00000001) for .ARM.Collect$$rtentry$$00000001
    __rtentry2.o(.ARM.exidx) refers to __rtentry2.o(.ARM.Collect$$rtentry$$00000008) for .ARM.Collect$$rtentry$$00000008
    __rtentry2.o(.ARM.exidx) refers to __rtentry2.o(.ARM.Collect$$rtentry$$0000000A) for .ARM.Collect$$rtentry$$0000000A
    __rtentry2.o(.ARM.exidx) refers to __rtentry2.o(.ARM.Collect$$rtentry$$0000000B) for .ARM.Collect$$rtentry$$0000000B
    __rtentry2.o(.ARM.exidx) refers to __rtentry2.o(.ARM.Collect$$rtentry$$0000000D) for .ARM.Collect$$rtentry$$0000000D
    __rtentry4.o(.ARM.Collect$$rtentry$$00000004) refers to sys_stackheap_outer.o(.text) for __user_setup_stackheap
    __rtentry4.o(.ARM.exidx) refers to __rtentry4.o(.ARM.Collect$$rtentry$$00000004) for .ARM.Collect$$rtentry$$00000004
    isspace.o(.text) refers to rt_ctype_table.o(.text) for __rt_ctype_table
    _scanf.o(.text) refers (Weak) to _scanf_int.o(.text) for _scanf_int
    sys_stackheap_outer.o(.text) refers to libspace.o(.text) for __user_perproc_libspace
    sys_stackheap_outer.o(.text) refers to startup_stm32f10x_md.o(.text) for __user_initial_stackheap
    rt_ctype_table.o(.text) refers to rt_locale_intlibspace.o(.text) for __rt_locale
    rt_ctype_table.o(.text) refers to lc_ctype_c.o(locale$$code) for _get_lc_ctype
    exit.o(.text) refers to rtexit.o(.ARM.Collect$$rtexit$$00000000) for __rt_exit
    libinit.o(.ARM.Collect$$libinit$$00000000) refers (Special) to libinit2.o(.ARM.Collect$$libinit$$0000002E) for __rt_lib_init_alloca_1
    libinit.o(.ARM.Collect$$libinit$$00000000) refers (Special) to libinit2.o(.ARM.Collect$$libinit$$0000002C) for __rt_lib_init_argv_1
    libinit.o(.ARM.Collect$$libinit$$00000000) refers (Special) to libinit2.o(.ARM.Collect$$libinit$$0000001B) for __rt_lib_init_atexit_1
    libinit.o(.ARM.Collect$$libinit$$00000000) refers (Special) to libinit2.o(.ARM.Collect$$libinit$$00000021) for __rt_lib_init_clock_1
    libinit.o(.ARM.Collect$$libinit$$00000000) refers (Special) to libinit2.o(.ARM.Collect$$libinit$$00000032) for __rt_lib_init_cpp_1
    libinit.o(.ARM.Collect$$libinit$$00000000) refers (Special) to libinit2.o(.ARM.Collect$$libinit$$00000030) for __rt_lib_init_exceptions_1
    libinit.o(.ARM.Collect$$libinit$$00000000) refers (Special) to libinit2.o(.ARM.Collect$$libinit$$00000002) for __rt_lib_init_fp_1
    libinit.o(.ARM.Collect$$libinit$$00000000) refers (Special) to libinit2.o(.ARM.Collect$$libinit$$0000001F) for __rt_lib_init_fp_trap_1
    libinit.o(.ARM.Collect$$libinit$$00000000) refers (Special) to libinit2.o(.ARM.Collect$$libinit$$00000023) for __rt_lib_init_getenv_1
    libinit.o(.ARM.Collect$$libinit$$00000000) refers (Special) to libinit2.o(.ARM.Collect$$libinit$$0000000A) for __rt_lib_init_heap_1
    libinit.o(.ARM.Collect$$libinit$$00000000) refers (Special) to libinit2.o(.ARM.Collect$$libinit$$00000011) for __rt_lib_init_lc_collate_1
    libinit.o(.ARM.Collect$$libinit$$00000000) refers (Special) to libinit2.o(.ARM.Collect$$libinit$$00000013) for __rt_lib_init_lc_ctype_1
    libinit.o(.ARM.Collect$$libinit$$00000000) refers (Special) to libinit2.o(.ARM.Collect$$libinit$$00000015) for __rt_lib_init_lc_monetary_1
    libinit.o(.ARM.Collect$$libinit$$00000000) refers (Special) to libinit2.o(.ARM.Collect$$libinit$$00000017) for __rt_lib_init_lc_numeric_1
    libinit.o(.ARM.Collect$$libinit$$00000000) refers (Special) to libinit2.o(.ARM.Collect$$libinit$$00000019) for __rt_lib_init_lc_time_1
    libinit.o(.ARM.Collect$$libinit$$00000000) refers (Special) to libinit2.o(.ARM.Collect$$libinit$$00000004) for __rt_lib_init_preinit_1
    libinit.o(.ARM.Collect$$libinit$$00000000) refers (Special) to libinit2.o(.ARM.Collect$$libinit$$0000000E) for __rt_lib_init_rand_1
    libinit.o(.ARM.Collect$$libinit$$00000000) refers (Special) to libinit2.o(.ARM.Collect$$libinit$$00000033) for __rt_lib_init_return
    libinit.o(.ARM.Collect$$libinit$$00000000) refers (Special) to libinit2.o(.ARM.Collect$$libinit$$0000001D) for __rt_lib_init_signal_1
    libinit.o(.ARM.Collect$$libinit$$00000000) refers (Special) to libinit2.o(.ARM.Collect$$libinit$$00000025) for __rt_lib_init_stdio_1
    libinit.o(.ARM.Collect$$libinit$$00000000) refers (Special) to libinit2.o(.ARM.Collect$$libinit$$0000000C) for __rt_lib_init_user_alloc_1
    libspace.o(.text) refers to libspace.o(.bss) for __libspace_start
    rtexit.o(.ARM.Collect$$rtexit$$00000000) refers (Special) to rtexit2.o(.ARM.Collect$$rtexit$$00000004) for __rt_exit_exit
    rtexit.o(.ARM.Collect$$rtexit$$00000000) refers (Special) to rtexit2.o(.ARM.Collect$$rtexit$$00000003) for __rt_exit_ls
    rtexit.o(.ARM.Collect$$rtexit$$00000000) refers (Special) to rtexit2.o(.ARM.Collect$$rtexit$$00000002) for __rt_exit_prels_1
    rtexit.o(.ARM.exidx) refers (Special) to rtexit2.o(.ARM.Collect$$rtexit$$00000004) for __rt_exit_exit
    rtexit.o(.ARM.exidx) refers (Special) to rtexit2.o(.ARM.Collect$$rtexit$$00000003) for __rt_exit_ls
    rtexit.o(.ARM.exidx) refers (Special) to rtexit2.o(.ARM.Collect$$rtexit$$00000002) for __rt_exit_prels_1
    rtexit.o(.ARM.exidx) refers to rtexit.o(.ARM.Collect$$rtexit$$00000000) for .ARM.Collect$$rtexit$$00000000
    rt_locale.o(.text) refers to rt_locale.o(.bss) for __rt_locale_data
    rt_locale_intlibspace.o(.text) refers to libspace.o(.bss) for __libspace_start
    lc_ctype_c.o(locale$$data) refers (Special) to libinit2.o(.ARM.Collect$$libinit$$00000012) for __rt_lib_init_lc_ctype_2
    lc_ctype_c.o(locale$$code) refers (Special) to libinit2.o(.ARM.Collect$$libinit$$00000012) for __rt_lib_init_lc_ctype_2
    lc_ctype_c.o(locale$$code) refers to strcmpv7m.o(.text) for strcmp
    lc_ctype_c.o(locale$$code) refers to lc_ctype_c.o(locale$$data) for __lcctype_c_name
    libinit2.o(.ARM.Collect$$libinit$$0000000F) refers (Weak) to rt_locale_intlibspace.o(.text) for __rt_locale
    libinit2.o(.ARM.Collect$$libinit$$00000010) refers to libinit2.o(.ARM.Collect$$libinit$$0000000F) for .ARM.Collect$$libinit$$0000000F
    libinit2.o(.ARM.Collect$$libinit$$00000012) refers to libinit2.o(.ARM.Collect$$libinit$$0000000F) for .ARM.Collect$$libinit$$0000000F
    libinit2.o(.ARM.Collect$$libinit$$00000012) refers (Weak) to lc_ctype_c.o(locale$$code) for _get_lc_ctype
    libinit2.o(.ARM.Collect$$libinit$$00000014) refers to libinit2.o(.ARM.Collect$$libinit$$0000000F) for .ARM.Collect$$libinit$$0000000F
    libinit2.o(.ARM.Collect$$libinit$$00000016) refers to libinit2.o(.ARM.Collect$$libinit$$0000000F) for .ARM.Collect$$libinit$$0000000F
    libinit2.o(.ARM.Collect$$libinit$$00000018) refers to libinit2.o(.ARM.Collect$$libinit$$0000000F) for .ARM.Collect$$libinit$$0000000F
    libinit2.o(.ARM.Collect$$libinit$$00000026) refers to argv_veneer.o(.emb_text) for __ARM_argv_veneer
    libinit2.o(.ARM.Collect$$libinit$$00000027) refers to argv_veneer.o(.emb_text) for __ARM_argv_veneer
    rtexit2.o(.ARM.Collect$$rtexit$$00000003) refers to libshutdown.o(.ARM.Collect$$libshutdown$$00000000) for __rt_lib_shutdown
    rtexit2.o(.ARM.Collect$$rtexit$$00000004) refers to sys_exit.o(.text) for _sys_exit
    rtexit2.o(.ARM.exidx) refers to rtexit2.o(.ARM.Collect$$rtexit$$00000001) for .ARM.Collect$$rtexit$$00000001
    rtexit2.o(.ARM.exidx) refers to rtexit2.o(.ARM.Collect$$rtexit$$00000003) for .ARM.Collect$$rtexit$$00000003
    rtexit2.o(.ARM.exidx) refers to rtexit2.o(.ARM.Collect$$rtexit$$00000004) for .ARM.Collect$$rtexit$$00000004
    argv_veneer.o(.emb_text) refers to no_argv.o(.text) for __ARM_get_argv
    sys_exit.o(.text) refers (Special) to use_no_semi.o(.text) for __I$use$semihosting
    sys_exit.o(.text) refers (Special) to indicate_semi.o(.text) for __semihosting_library_function
    _get_argv_nomalloc.o(.text) refers (Special) to hrguard.o(.text) for __heap_region$guard
    _get_argv_nomalloc.o(.text) refers to defsig_rtmem_outer.o(.text) for __rt_SIGRTMEM
    _get_argv_nomalloc.o(.text) refers to sys_command.o(.text) for _sys_command_string
    libshutdown.o(.ARM.Collect$$libshutdown$$00000000) refers (Special) to libshutdown2.o(.ARM.Collect$$libshutdown$$00000002) for __rt_lib_shutdown_cpp_1
    libshutdown.o(.ARM.Collect$$libshutdown$$00000000) refers (Special) to libshutdown2.o(.ARM.Collect$$libshutdown$$00000007) for __rt_lib_shutdown_fp_trap_1
    libshutdown.o(.ARM.Collect$$libshutdown$$00000000) refers (Special) to libshutdown2.o(.ARM.Collect$$libshutdown$$0000000F) for __rt_lib_shutdown_heap_1
    libshutdown.o(.ARM.Collect$$libshutdown$$00000000) refers (Special) to libshutdown2.o(.ARM.Collect$$libshutdown$$00000010) for __rt_lib_shutdown_return
    libshutdown.o(.ARM.Collect$$libshutdown$$00000000) refers (Special) to libshutdown2.o(.ARM.Collect$$libshutdown$$0000000A) for __rt_lib_shutdown_signal_1
    libshutdown.o(.ARM.Collect$$libshutdown$$00000000) refers (Special) to libshutdown2.o(.ARM.Collect$$libshutdown$$00000004) for __rt_lib_shutdown_stdio_1
    libshutdown.o(.ARM.Collect$$libshutdown$$00000000) refers (Special) to libshutdown2.o(.ARM.Collect$$libshutdown$$0000000C) for __rt_lib_shutdown_user_alloc_1
    sys_command.o(.text) refers (Special) to use_no_semi.o(.text) for __I$use$semihosting
    sys_command.o(.text) refers (Special) to indicate_semi.o(.text) for __semihosting_library_function
    defsig_rtmem_outer.o(.text) refers to defsig_rtmem_inner.o(.text) for __rt_SIGRTMEM_inner
    defsig_rtmem_outer.o(.text) refers to defsig_exit.o(.text) for __sig_exit
    defsig_rtmem_formal.o(.text) refers to rt_raise.o(.text) for __rt_raise
    rt_raise.o(.text) refers to __raise.o(.text) for __raise
    rt_raise.o(.text) refers to sys_exit.o(.text) for _sys_exit
    defsig_exit.o(.text) refers to sys_exit.o(.text) for _sys_exit
    defsig_rtmem_inner.o(.text) refers to defsig_general.o(.text) for __default_signal_display
    __raise.o(.text) refers to defsig.o(CL$$defsig) for __default_signal_handler
    defsig_general.o(.text) refers to sys_wrch.o(.text) for _ttywrch
    sys_wrch.o(.text) refers (Special) to use_no_semi.o(.text) for __I$use$semihosting
    sys_wrch.o(.text) refers (Special) to indicate_semi.o(.text) for __semihosting_library_function
    defsig.o(CL$$defsig) refers to defsig_rtmem_inner.o(.text) for __rt_SIGRTMEM_inner
    defsig_abrt_inner.o(.text) refers to defsig_general.o(.text) for __default_signal_display
    defsig_fpe_inner.o(.text) refers to defsig_general.o(.text) for __default_signal_display
    defsig_rtred_inner.o(.text) refers to defsig_general.o(.text) for __default_signal_display
    defsig_stak_inner.o(.text) refers to defsig_general.o(.text) for __default_signal_display
    defsig_pvfn_inner.o(.text) refers to defsig_general.o(.text) for __default_signal_display
    defsig_cppl_inner.o(.text) refers to defsig_general.o(.text) for __default_signal_display
    defsig_segv_inner.o(.text) refers to defsig_general.o(.text) for __default_signal_display
    defsig_other.o(.text) refers to defsig_general.o(.text) for __default_signal_display


==============================================================================

Removing Unused input sections from the image.

    Removing main.o(.rev16_text), (4 bytes).
    Removing main.o(.revsh_text), (4 bytes).
    Removing main.o(.rrx_text), (6 bytes).
    Removing main.o(i.HOSTWAKE_Configuration), (72 bytes).
    Removing config_utils.o(.rev16_text), (4 bytes).
    Removing config_utils.o(.revsh_text), (4 bytes).
    Removing config_utils.o(.rrx_text), (6 bytes).
    Removing crc32.o(.rev16_text), (4 bytes).
    Removing crc32.o(.revsh_text), (4 bytes).
    Removing crc32.o(.rrx_text), (6 bytes).
    Removing see_i2c.o(.rev16_text), (4 bytes).
    Removing see_i2c.o(.revsh_text), (4 bytes).
    Removing see_i2c.o(.rrx_text), (6 bytes).
    Removing time_utils.o(.rev16_text), (4 bytes).
    Removing time_utils.o(.revsh_text), (4 bytes).
    Removing time_utils.o(.rrx_text), (6 bytes).
    Removing time_utils.o(i.loop_ms), (44 bytes).
    Removing usart_utils.o(.rev16_text), (4 bytes).
    Removing usart_utils.o(.revsh_text), (4 bytes).
    Removing usart_utils.o(.rrx_text), (6 bytes).
    Removing utils.o(.rev16_text), (4 bytes).
    Removing utils.o(.revsh_text), (4 bytes).
    Removing utils.o(.rrx_text), (6 bytes).
    Removing completion.o(i.rt_completion_init), (30 bytes).
    Removing completion.o(i.rt_completion_wait), (126 bytes).
    Removing dataqueue.o(i.rt_data_queue_init), (64 bytes).
    Removing dataqueue.o(i.rt_data_queue_push), (230 bytes).
    Removing dataqueue.o(i.rt_data_queue_reset), (106 bytes).
    Removing dataqueue.o(i.rt_list_init), (6 bytes).
    Removing pipe.o(i.rt_list_init), (6 bytes).
    Removing pipe.o(i.rt_pipe_close), (54 bytes).
    Removing pipe.o(i.rt_pipe_control), (6 bytes).
    Removing pipe.o(i.rt_pipe_create), (148 bytes).
    Removing pipe.o(i.rt_pipe_delete), (86 bytes).
    Removing pipe.o(i.rt_pipe_open), (54 bytes).
    Removing pipe.o(i.rt_pipe_read), (100 bytes).
    Removing pipe.o(i.rt_pipe_write), (100 bytes).
    Removing ringbuffer.o(i.rt_ringbuffer_create), (54 bytes).
    Removing ringbuffer.o(i.rt_ringbuffer_data_len), (76 bytes).
    Removing ringbuffer.o(i.rt_ringbuffer_destroy), (18 bytes).
    Removing ringbuffer.o(i.rt_ringbuffer_get), (164 bytes).
    Removing ringbuffer.o(i.rt_ringbuffer_getchar), (88 bytes).
    Removing ringbuffer.o(i.rt_ringbuffer_init), (48 bytes).
    Removing ringbuffer.o(i.rt_ringbuffer_put), (168 bytes).
    Removing ringbuffer.o(i.rt_ringbuffer_put_force), (208 bytes).
    Removing ringbuffer.o(i.rt_ringbuffer_putchar), (90 bytes).
    Removing ringbuffer.o(i.rt_ringbuffer_putchar_force), (126 bytes).
    Removing ringbuffer.o(i.rt_ringbuffer_reset), (36 bytes).
    Removing ringbuffer.o(i.rt_ringbuffer_status), (42 bytes).
    Removing serial.o(i._serial_dma_rx), (212 bytes).
    Removing serial.o(i._serial_dma_tx), (92 bytes).
    Removing serial.o(i._serial_int_rx), (112 bytes).
    Removing serial.o(i.rt_dma_recv_update_get_index), (54 bytes).
    Removing serial.o(i.rt_hw_serial_register), (92 bytes).
    Removing serial.o(i.rt_serial_close), (200 bytes).
    Removing serial.o(i.rt_serial_control), (130 bytes).
    Removing serial.o(i.rt_serial_init), (38 bytes).
    Removing serial.o(i.rt_serial_open), (482 bytes).
    Removing serial.o(i.rt_serial_read), (116 bytes).
    Removing serial.o(i.rt_serial_write), (176 bytes).
    Removing usart.o(.rev16_text), (4 bytes).
    Removing usart.o(.revsh_text), (4 bytes).
    Removing usart.o(.rrx_text), (6 bytes).
    Removing usart.o(i.DMA_Configuration), (174 bytes).
    Removing usart.o(i.GPIO_Configuration), (104 bytes).
    Removing usart.o(i.NVIC_Configuration), (34 bytes).
    Removing usart.o(i.RCC_Configuration), (36 bytes).
    Removing usart.o(i.rt_hw_usart_init), (148 bytes).
    Removing usart.o(i.stm32_configure), (166 bytes).
    Removing usart.o(i.stm32_control), (168 bytes).
    Removing usart.o(i.stm32_putc), (84 bytes).
    Removing usart.o(.constdata), (28 bytes).
    Removing usart.o(.data), (56 bytes).
    Removing waitqueue.o(i.__wqueue_default_wake), (6 bytes).
    Removing waitqueue.o(i.rt_wqueue_add), (36 bytes).
    Removing waitqueue.o(i.rt_wqueue_remove), (38 bytes).
    Removing waitqueue.o(i.rt_wqueue_wait), (124 bytes).
    Removing waitqueue.o(i.rt_wqueue_wakeup), (100 bytes).
    Removing workqueue.o(i._workqueue_thread_entry), (140 bytes).
    Removing workqueue.o(i.rt_list_insert_after), (14 bytes).
    Removing workqueue.o(i.rt_list_remove), (18 bytes).
    Removing workqueue.o(i.rt_workqueue_cancel_all_work), (34 bytes).
    Removing workqueue.o(i.rt_workqueue_cancel_work), (46 bytes).
    Removing workqueue.o(i.rt_workqueue_cancel_work_sync), (48 bytes).
    Removing workqueue.o(i.rt_workqueue_create), (108 bytes).
    Removing workqueue.o(i.rt_workqueue_critical_work), (76 bytes).
    Removing workqueue.o(i.rt_workqueue_destroy), (20 bytes).
    Removing workqueue.o(i.rt_workqueue_dowork), (76 bytes).
    Removing system_stm32f10x.o(.rev16_text), (4 bytes).
    Removing system_stm32f10x.o(.revsh_text), (4 bytes).
    Removing system_stm32f10x.o(.rrx_text), (6 bytes).
    Removing misc.o(.rev16_text), (4 bytes).
    Removing misc.o(.revsh_text), (4 bytes).
    Removing misc.o(.rrx_text), (6 bytes).
    Removing misc.o(i.NVIC_SetVectorTable), (20 bytes).
    Removing misc.o(i.NVIC_SystemLPConfig), (32 bytes).
    Removing misc.o(i.SysTick_CLKSourceConfig), (40 bytes).
    Removing stm32f10x_dma.o(.rev16_text), (4 bytes).
    Removing stm32f10x_dma.o(.revsh_text), (4 bytes).
    Removing stm32f10x_dma.o(.rrx_text), (6 bytes).
    Removing stm32f10x_dma.o(i.DMA_ClearITPendingBit), (28 bytes).
    Removing stm32f10x_dma.o(i.DMA_Cmd), (24 bytes).
    Removing stm32f10x_dma.o(i.DMA_DeInit), (332 bytes).
    Removing stm32f10x_dma.o(i.DMA_GetFlagStatus), (44 bytes).
    Removing stm32f10x_dma.o(i.DMA_GetITStatus), (44 bytes).
    Removing stm32f10x_dma.o(i.DMA_ITConfig), (18 bytes).
    Removing stm32f10x_dma.o(i.DMA_Init), (60 bytes).
    Removing stm32f10x_dma.o(i.DMA_SetCurrDataCounter), (4 bytes).
    Removing stm32f10x_dma.o(i.DMA_StructInit), (26 bytes).
    Removing stm32f10x_exti.o(.rev16_text), (4 bytes).
    Removing stm32f10x_exti.o(.revsh_text), (4 bytes).
    Removing stm32f10x_exti.o(.rrx_text), (6 bytes).
    Removing stm32f10x_exti.o(i.EXTI_ClearFlag), (12 bytes).
    Removing stm32f10x_exti.o(i.EXTI_DeInit), (36 bytes).
    Removing stm32f10x_exti.o(i.EXTI_GenerateSWInterrupt), (16 bytes).
    Removing stm32f10x_exti.o(i.EXTI_GetFlagStatus), (24 bytes).
    Removing stm32f10x_exti.o(i.EXTI_StructInit), (16 bytes).
    Removing stm32f10x_gpio.o(.rev16_text), (4 bytes).
    Removing stm32f10x_gpio.o(.revsh_text), (4 bytes).
    Removing stm32f10x_gpio.o(.rrx_text), (6 bytes).
    Removing stm32f10x_gpio.o(i.GPIO_AFIODeInit), (20 bytes).
    Removing stm32f10x_gpio.o(i.GPIO_DeInit), (200 bytes).
    Removing stm32f10x_gpio.o(i.GPIO_ETH_MediaInterfaceConfig), (12 bytes).
    Removing stm32f10x_gpio.o(i.GPIO_EventOutputCmd), (12 bytes).
    Removing stm32f10x_gpio.o(i.GPIO_EventOutputConfig), (32 bytes).
    Removing stm32f10x_gpio.o(i.GPIO_PinLockConfig), (18 bytes).
    Removing stm32f10x_gpio.o(i.GPIO_PinRemapConfig), (144 bytes).
    Removing stm32f10x_gpio.o(i.GPIO_ReadInputData), (8 bytes).
    Removing stm32f10x_gpio.o(i.GPIO_ReadInputDataBit), (18 bytes).
    Removing stm32f10x_gpio.o(i.GPIO_ReadOutputData), (8 bytes).
    Removing stm32f10x_gpio.o(i.GPIO_ReadOutputDataBit), (18 bytes).
    Removing stm32f10x_gpio.o(i.GPIO_StructInit), (16 bytes).
    Removing stm32f10x_gpio.o(i.GPIO_Write), (4 bytes).
    Removing stm32f10x_gpio.o(i.GPIO_WriteBit), (10 bytes).
    Removing stm32f10x_rcc.o(.rev16_text), (4 bytes).
    Removing stm32f10x_rcc.o(.revsh_text), (4 bytes).
    Removing stm32f10x_rcc.o(.rrx_text), (6 bytes).
    Removing stm32f10x_rcc.o(i.RCC_ADCCLKConfig), (24 bytes).
    Removing stm32f10x_rcc.o(i.RCC_AHBPeriphClockCmd), (32 bytes).
    Removing stm32f10x_rcc.o(i.RCC_APB1PeriphResetCmd), (32 bytes).
    Removing stm32f10x_rcc.o(i.RCC_APB2PeriphResetCmd), (32 bytes).
    Removing stm32f10x_rcc.o(i.RCC_AdjustHSICalibrationValue), (24 bytes).
    Removing stm32f10x_rcc.o(i.RCC_BackupResetCmd), (12 bytes).
    Removing stm32f10x_rcc.o(i.RCC_ClearFlag), (20 bytes).
    Removing stm32f10x_rcc.o(i.RCC_ClearITPendingBit), (12 bytes).
    Removing stm32f10x_rcc.o(i.RCC_ClockSecuritySystemCmd), (12 bytes).
    Removing stm32f10x_rcc.o(i.RCC_DeInit), (76 bytes).
    Removing stm32f10x_rcc.o(i.RCC_GetFlagStatus), (60 bytes).
    Removing stm32f10x_rcc.o(i.RCC_GetITStatus), (24 bytes).
    Removing stm32f10x_rcc.o(i.RCC_GetSYSCLKSource), (16 bytes).
    Removing stm32f10x_rcc.o(i.RCC_HCLKConfig), (24 bytes).
    Removing stm32f10x_rcc.o(i.RCC_HSEConfig), (76 bytes).
    Removing stm32f10x_rcc.o(i.RCC_HSICmd), (12 bytes).
    Removing stm32f10x_rcc.o(i.RCC_ITConfig), (32 bytes).
    Removing stm32f10x_rcc.o(i.RCC_LSEConfig), (52 bytes).
    Removing stm32f10x_rcc.o(i.RCC_LSICmd), (12 bytes).
    Removing stm32f10x_rcc.o(i.RCC_MCOConfig), (12 bytes).
    Removing stm32f10x_rcc.o(i.RCC_PCLK1Config), (24 bytes).
    Removing stm32f10x_rcc.o(i.RCC_PCLK2Config), (24 bytes).
    Removing stm32f10x_rcc.o(i.RCC_PLLCmd), (12 bytes).
    Removing stm32f10x_rcc.o(i.RCC_PLLConfig), (28 bytes).
    Removing stm32f10x_rcc.o(i.RCC_RTCCLKCmd), (12 bytes).
    Removing stm32f10x_rcc.o(i.RCC_RTCCLKConfig), (16 bytes).
    Removing stm32f10x_rcc.o(i.RCC_SYSCLKConfig), (24 bytes).
    Removing stm32f10x_rcc.o(i.RCC_USBCLKConfig), (12 bytes).
    Removing stm32f10x_rcc.o(i.RCC_WaitForHSEStartUp), (56 bytes).
    Removing stm32f10x_spi.o(.rev16_text), (4 bytes).
    Removing stm32f10x_spi.o(.revsh_text), (4 bytes).
    Removing stm32f10x_spi.o(.rrx_text), (6 bytes).
    Removing stm32f10x_spi.o(i.I2S_Cmd), (24 bytes).
    Removing stm32f10x_spi.o(i.I2S_Init), (232 bytes).
    Removing stm32f10x_spi.o(i.I2S_StructInit), (20 bytes).
    Removing stm32f10x_spi.o(i.SPI_BiDirectionalLineConfig), (28 bytes).
    Removing stm32f10x_spi.o(i.SPI_CalculateCRC), (24 bytes).
    Removing stm32f10x_spi.o(i.SPI_Cmd), (24 bytes).
    Removing stm32f10x_spi.o(i.SPI_DataSizeConfig), (18 bytes).
    Removing stm32f10x_spi.o(i.SPI_GetCRC), (16 bytes).
    Removing stm32f10x_spi.o(i.SPI_GetCRCPolynomial), (6 bytes).
    Removing stm32f10x_spi.o(i.SPI_I2S_ClearFlag), (6 bytes).
    Removing stm32f10x_spi.o(i.SPI_I2S_ClearITPendingBit), (20 bytes).
    Removing stm32f10x_spi.o(i.SPI_I2S_DMACmd), (18 bytes).
    Removing stm32f10x_spi.o(i.SPI_I2S_DeInit), (88 bytes).
    Removing stm32f10x_spi.o(i.SPI_I2S_GetFlagStatus), (18 bytes).
    Removing stm32f10x_spi.o(i.SPI_I2S_GetITStatus), (52 bytes).
    Removing stm32f10x_spi.o(i.SPI_I2S_ITConfig), (32 bytes).
    Removing stm32f10x_spi.o(i.SPI_I2S_ReceiveData), (6 bytes).
    Removing stm32f10x_spi.o(i.SPI_I2S_SendData), (4 bytes).
    Removing stm32f10x_spi.o(i.SPI_Init), (60 bytes).
    Removing stm32f10x_spi.o(i.SPI_NSSInternalSoftwareConfig), (30 bytes).
    Removing stm32f10x_spi.o(i.SPI_SSOutputCmd), (24 bytes).
    Removing stm32f10x_spi.o(i.SPI_StructInit), (24 bytes).
    Removing stm32f10x_spi.o(i.SPI_TransmitCRC), (10 bytes).
    Removing stm32f10x_usart.o(.rev16_text), (4 bytes).
    Removing stm32f10x_usart.o(.revsh_text), (4 bytes).
    Removing stm32f10x_usart.o(.rrx_text), (6 bytes).
    Removing stm32f10x_usart.o(i.USART_ClearFlag), (18 bytes).
    Removing stm32f10x_usart.o(i.USART_ClockInit), (34 bytes).
    Removing stm32f10x_usart.o(i.USART_ClockStructInit), (12 bytes).
    Removing stm32f10x_usart.o(i.USART_DMACmd), (18 bytes).
    Removing stm32f10x_usart.o(i.USART_DeInit), (156 bytes).
    Removing stm32f10x_usart.o(i.USART_HalfDuplexCmd), (24 bytes).
    Removing stm32f10x_usart.o(i.USART_IrDACmd), (24 bytes).
    Removing stm32f10x_usart.o(i.USART_IrDAConfig), (18 bytes).
    Removing stm32f10x_usart.o(i.USART_LINBreakDetectLengthConfig), (18 bytes).
    Removing stm32f10x_usart.o(i.USART_LINCmd), (24 bytes).
    Removing stm32f10x_usart.o(i.USART_OneBitMethodCmd), (24 bytes).
    Removing stm32f10x_usart.o(i.USART_OverSampling8Cmd), (22 bytes).
    Removing stm32f10x_usart.o(i.USART_ReceiverWakeUpCmd), (24 bytes).
    Removing stm32f10x_usart.o(i.USART_SendBreak), (10 bytes).
    Removing stm32f10x_usart.o(i.USART_SetAddress), (18 bytes).
    Removing stm32f10x_usart.o(i.USART_SetGuardTime), (16 bytes).
    Removing stm32f10x_usart.o(i.USART_SetPrescaler), (16 bytes).
    Removing stm32f10x_usart.o(i.USART_SmartCardCmd), (24 bytes).
    Removing stm32f10x_usart.o(i.USART_SmartCardNACKCmd), (24 bytes).
    Removing stm32f10x_usart.o(i.USART_StructInit), (24 bytes).
    Removing stm32f10x_usart.o(i.USART_WakeUpConfig), (18 bytes).
    Removing stm32f10x_wwdg.o(.rev16_text), (4 bytes).
    Removing stm32f10x_wwdg.o(.revsh_text), (4 bytes).
    Removing stm32f10x_wwdg.o(.rrx_text), (6 bytes).
    Removing stm32f10x_wwdg.o(i.WWDG_ClearFlag), (12 bytes).
    Removing stm32f10x_wwdg.o(i.WWDG_DeInit), (22 bytes).
    Removing stm32f10x_wwdg.o(i.WWDG_Enable), (16 bytes).
    Removing stm32f10x_wwdg.o(i.WWDG_EnableIT), (12 bytes).
    Removing stm32f10x_wwdg.o(i.WWDG_GetFlagStatus), (12 bytes).
    Removing stm32f10x_wwdg.o(i.WWDG_SetCounter), (16 bytes).
    Removing stm32f10x_wwdg.o(i.WWDG_SetPrescaler), (24 bytes).
    Removing stm32f10x_wwdg.o(i.WWDG_SetWindowValue), (40 bytes).
    Removing stm32f10x_tim.o(.rev16_text), (4 bytes).
    Removing stm32f10x_tim.o(.revsh_text), (4 bytes).
    Removing stm32f10x_tim.o(.rrx_text), (6 bytes).
    Removing stm32f10x_tim.o(i.TI1_Config), (128 bytes).
    Removing stm32f10x_tim.o(i.TI2_Config), (152 bytes).
    Removing stm32f10x_tim.o(i.TI3_Config), (144 bytes).
    Removing stm32f10x_tim.o(i.TI4_Config), (152 bytes).
    Removing stm32f10x_tim.o(i.TIM_ARRPreloadConfig), (24 bytes).
    Removing stm32f10x_tim.o(i.TIM_BDTRConfig), (32 bytes).
    Removing stm32f10x_tim.o(i.TIM_BDTRStructInit), (18 bytes).
    Removing stm32f10x_tim.o(i.TIM_CCPreloadControl), (24 bytes).
    Removing stm32f10x_tim.o(i.TIM_CCxCmd), (30 bytes).
    Removing stm32f10x_tim.o(i.TIM_CCxNCmd), (30 bytes).
    Removing stm32f10x_tim.o(i.TIM_ClearFlag), (6 bytes).
    Removing stm32f10x_tim.o(i.TIM_ClearOC1Ref), (18 bytes).
    Removing stm32f10x_tim.o(i.TIM_ClearOC2Ref), (24 bytes).
    Removing stm32f10x_tim.o(i.TIM_ClearOC3Ref), (18 bytes).
    Removing stm32f10x_tim.o(i.TIM_ClearOC4Ref), (24 bytes).
    Removing stm32f10x_tim.o(i.TIM_CounterModeConfig), (18 bytes).
    Removing stm32f10x_tim.o(i.TIM_CtrlPWMOutputs), (30 bytes).
    Removing stm32f10x_tim.o(i.TIM_DMACmd), (18 bytes).
    Removing stm32f10x_tim.o(i.TIM_DMAConfig), (10 bytes).
    Removing stm32f10x_tim.o(i.TIM_DeInit), (488 bytes).
    Removing stm32f10x_tim.o(i.TIM_ETRClockMode1Config), (54 bytes).
    Removing stm32f10x_tim.o(i.TIM_ETRClockMode2Config), (32 bytes).
    Removing stm32f10x_tim.o(i.TIM_ETRConfig), (28 bytes).
    Removing stm32f10x_tim.o(i.TIM_EncoderInterfaceConfig), (66 bytes).
    Removing stm32f10x_tim.o(i.TIM_ForcedOC1Config), (18 bytes).
    Removing stm32f10x_tim.o(i.TIM_ForcedOC2Config), (26 bytes).
    Removing stm32f10x_tim.o(i.TIM_ForcedOC3Config), (18 bytes).
    Removing stm32f10x_tim.o(i.TIM_ForcedOC4Config), (26 bytes).
    Removing stm32f10x_tim.o(i.TIM_GenerateEvent), (4 bytes).
    Removing stm32f10x_tim.o(i.TIM_GetCapture1), (6 bytes).
    Removing stm32f10x_tim.o(i.TIM_GetCapture2), (6 bytes).
    Removing stm32f10x_tim.o(i.TIM_GetCapture3), (6 bytes).
    Removing stm32f10x_tim.o(i.TIM_GetCapture4), (8 bytes).
    Removing stm32f10x_tim.o(i.TIM_GetCounter), (6 bytes).
    Removing stm32f10x_tim.o(i.TIM_GetFlagStatus), (18 bytes).
    Removing stm32f10x_tim.o(i.TIM_GetPrescaler), (6 bytes).
    Removing stm32f10x_tim.o(i.TIM_ICInit), (172 bytes).
    Removing stm32f10x_tim.o(i.TIM_ICStructInit), (18 bytes).
    Removing stm32f10x_tim.o(i.TIM_ITRxExternalClockConfig), (24 bytes).
    Removing stm32f10x_tim.o(i.TIM_InternalClockConfig), (12 bytes).
    Removing stm32f10x_tim.o(i.TIM_OC1FastConfig), (18 bytes).
    Removing stm32f10x_tim.o(i.TIM_OC1Init), (152 bytes).
    Removing stm32f10x_tim.o(i.TIM_OC1NPolarityConfig), (18 bytes).
    Removing stm32f10x_tim.o(i.TIM_OC1PolarityConfig), (18 bytes).
    Removing stm32f10x_tim.o(i.TIM_OC1PreloadConfig), (18 bytes).
    Removing stm32f10x_tim.o(i.TIM_OC2FastConfig), (26 bytes).
    Removing stm32f10x_tim.o(i.TIM_OC2Init), (164 bytes).
    Removing stm32f10x_tim.o(i.TIM_OC2NPolarityConfig), (26 bytes).
    Removing stm32f10x_tim.o(i.TIM_OC2PolarityConfig), (26 bytes).
    Removing stm32f10x_tim.o(i.TIM_OC2PreloadConfig), (26 bytes).
    Removing stm32f10x_tim.o(i.TIM_OC3FastConfig), (18 bytes).
    Removing stm32f10x_tim.o(i.TIM_OC3Init), (160 bytes).
    Removing stm32f10x_tim.o(i.TIM_OC3NPolarityConfig), (26 bytes).
    Removing stm32f10x_tim.o(i.TIM_OC3PolarityConfig), (26 bytes).
    Removing stm32f10x_tim.o(i.TIM_OC3PreloadConfig), (18 bytes).
    Removing stm32f10x_tim.o(i.TIM_OC4FastConfig), (26 bytes).
    Removing stm32f10x_tim.o(i.TIM_OC4Init), (124 bytes).
    Removing stm32f10x_tim.o(i.TIM_OC4PolarityConfig), (26 bytes).
    Removing stm32f10x_tim.o(i.TIM_OC4PreloadConfig), (26 bytes).
    Removing stm32f10x_tim.o(i.TIM_OCStructInit), (20 bytes).
    Removing stm32f10x_tim.o(i.TIM_PWMIConfig), (124 bytes).
    Removing stm32f10x_tim.o(i.TIM_PrescalerConfig), (6 bytes).
    Removing stm32f10x_tim.o(i.TIM_SelectCCDMA), (24 bytes).
    Removing stm32f10x_tim.o(i.TIM_SelectCOM), (24 bytes).
    Removing stm32f10x_tim.o(i.TIM_SelectHallSensor), (24 bytes).
    Removing stm32f10x_tim.o(i.TIM_SelectInputTrigger), (18 bytes).
    Removing stm32f10x_tim.o(i.TIM_SelectMasterSlaveMode), (18 bytes).
    Removing stm32f10x_tim.o(i.TIM_SelectOCxM), (82 bytes).
    Removing stm32f10x_tim.o(i.TIM_SelectOnePulseMode), (18 bytes).
    Removing stm32f10x_tim.o(i.TIM_SelectOutputTrigger), (18 bytes).
    Removing stm32f10x_tim.o(i.TIM_SelectSlaveMode), (18 bytes).
    Removing stm32f10x_tim.o(i.TIM_SetAutoreload), (4 bytes).
    Removing stm32f10x_tim.o(i.TIM_SetClockDivision), (18 bytes).
    Removing stm32f10x_tim.o(i.TIM_SetCompare1), (4 bytes).
    Removing stm32f10x_tim.o(i.TIM_SetCompare2), (4 bytes).
    Removing stm32f10x_tim.o(i.TIM_SetCompare3), (4 bytes).
    Removing stm32f10x_tim.o(i.TIM_SetCompare4), (6 bytes).
    Removing stm32f10x_tim.o(i.TIM_SetCounter), (4 bytes).
    Removing stm32f10x_tim.o(i.TIM_SetIC1Prescaler), (18 bytes).
    Removing stm32f10x_tim.o(i.TIM_SetIC2Prescaler), (26 bytes).
    Removing stm32f10x_tim.o(i.TIM_SetIC3Prescaler), (18 bytes).
    Removing stm32f10x_tim.o(i.TIM_SetIC4Prescaler), (26 bytes).
    Removing stm32f10x_tim.o(i.TIM_TIxExternalClockConfig), (62 bytes).
    Removing stm32f10x_tim.o(i.TIM_TimeBaseStructInit), (18 bytes).
    Removing stm32f10x_tim.o(i.TIM_UpdateDisableConfig), (24 bytes).
    Removing stm32f10x_tim.o(i.TIM_UpdateRequestConfig), (24 bytes).
    Removing stm32f10x_i2c.o(.rev16_text), (4 bytes).
    Removing stm32f10x_i2c.o(.revsh_text), (4 bytes).
    Removing stm32f10x_i2c.o(.rrx_text), (6 bytes).
    Removing stm32f10x_i2c.o(i.I2C_ARPCmd), (24 bytes).
    Removing stm32f10x_i2c.o(i.I2C_CalculatePEC), (24 bytes).
    Removing stm32f10x_i2c.o(i.I2C_ClearITPendingBit), (12 bytes).
    Removing stm32f10x_i2c.o(i.I2C_DMACmd), (24 bytes).
    Removing stm32f10x_i2c.o(i.I2C_DMALastTransferCmd), (24 bytes).
    Removing stm32f10x_i2c.o(i.I2C_DeInit), (56 bytes).
    Removing stm32f10x_i2c.o(i.I2C_DualAddressCmd), (24 bytes).
    Removing stm32f10x_i2c.o(i.I2C_FastModeDutyCycleConfig), (28 bytes).
    Removing stm32f10x_i2c.o(i.I2C_GeneralCallCmd), (24 bytes).
    Removing stm32f10x_i2c.o(i.I2C_GetITStatus), (38 bytes).
    Removing stm32f10x_i2c.o(i.I2C_GetLastEvent), (26 bytes).
    Removing stm32f10x_i2c.o(i.I2C_GetPEC), (8 bytes).
    Removing stm32f10x_i2c.o(i.I2C_ITConfig), (18 bytes).
    Removing stm32f10x_i2c.o(i.I2C_NACKPositionConfig), (28 bytes).
    Removing stm32f10x_i2c.o(i.I2C_OwnAddress2Config), (22 bytes).
    Removing stm32f10x_i2c.o(i.I2C_PECPositionConfig), (28 bytes).
    Removing stm32f10x_i2c.o(i.I2C_ReadRegister), (22 bytes).
    Removing stm32f10x_i2c.o(i.I2C_SMBusAlertConfig), (28 bytes).
    Removing stm32f10x_i2c.o(i.I2C_SoftwareResetCmd), (22 bytes).
    Removing stm32f10x_i2c.o(i.I2C_StretchClockCmd), (24 bytes).
    Removing stm32f10x_i2c.o(i.I2C_StructInit), (30 bytes).
    Removing stm32f10x_i2c.o(i.I2C_TransmitPEC), (24 bytes).
    Removing cpuport.o(i.rt_hw_cpu_shutdown), (2 bytes).
    Removing cpuport.o(i.rt_hw_exception_install), (12 bytes).
    Removing clock.o(i.rt_system_tick_init), (2 bytes).
    Removing clock.o(i.rt_tick_from_millisecond), (32 bytes).
    Removing clock.o(i.rt_tick_set), (28 bytes).
    Removing device.o(i.rt_device_close), (54 bytes).
    Removing device.o(i.rt_device_control), (30 bytes).
    Removing device.o(i.rt_device_create), (40 bytes).
    Removing device.o(i.rt_device_destroy), (18 bytes).
    Removing device.o(i.rt_device_find), (82 bytes).
    Removing device.o(i.rt_device_init), (40 bytes).
    Removing device.o(i.rt_device_init_all), (4 bytes).
    Removing device.o(i.rt_device_open), (112 bytes).
    Removing device.o(i.rt_device_read), (62 bytes).
    Removing device.o(i.rt_device_register), (52 bytes).
    Removing device.o(i.rt_device_set_rx_indicate), (8 bytes).
    Removing device.o(i.rt_device_set_tx_complete), (8 bytes).
    Removing device.o(i.rt_device_unregister), (14 bytes).
    Removing device.o(i.rt_device_write), (62 bytes).
    Removing idle.o(i.rt_thread_idle_gethandler), (8 bytes).
    Removing ipc.o(i.rt_ipc_list_resume_all), (50 bytes).
    Removing ipc.o(i.rt_mb_control), (66 bytes).
    Removing ipc.o(i.rt_mb_create), (82 bytes).
    Removing ipc.o(i.rt_mb_delete), (36 bytes).
    Removing ipc.o(i.rt_mb_detach), (30 bytes).
    Removing ipc.o(i.rt_mb_init), (62 bytes).
    Removing ipc.o(i.rt_mb_recv), (244 bytes).
    Removing ipc.o(i.rt_mb_send), (18 bytes).
    Removing ipc.o(i.rt_mb_send_wait), (246 bytes).
    Removing ipc.o(i.rt_mutex_control), (8 bytes).
    Removing ipc.o(i.rt_mutex_create), (50 bytes).
    Removing ipc.o(i.rt_mutex_delete), (22 bytes).
    Removing ipc.o(i.rt_mutex_detach), (22 bytes).
    Removing ipc.o(i.rt_mutex_init), (44 bytes).
    Removing ipc.o(i.rt_mutex_release), (150 bytes).
    Removing ipc.o(i.rt_mutex_take), (192 bytes).
    Removing ipc.o(i.rt_sem_control), (54 bytes).
    Removing ipc.o(i.rt_sem_create), (42 bytes).
    Removing ipc.o(i.rt_sem_delete), (22 bytes).
    Removing ipc.o(i.rt_sem_detach), (22 bytes).
    Removing ipc.o(i.rt_sem_trytake), (14 bytes).
    Removing irq.o(i.rt_interrupt_get_nest), (12 bytes).
    Removing kservice.o(i._rt_errno), (36 bytes).
    Removing kservice.o(i.print_number), (396 bytes).
    Removing kservice.o(i.rt_free_align), (16 bytes).
    Removing kservice.o(i.rt_get_errno), (36 bytes).
    Removing kservice.o(i.rt_malloc_align), (66 bytes).
    Removing kservice.o(i.rt_memcmp), (38 bytes).
    Removing kservice.o(i.rt_memcpy), (124 bytes).
    Removing kservice.o(i.rt_memmove), (66 bytes).
    Removing kservice.o(i.rt_set_errno), (40 bytes).
    Removing kservice.o(i.rt_snprintf), (38 bytes).
    Removing kservice.o(i.rt_sprintf), (34 bytes).
    Removing kservice.o(i.rt_strcasecmp), (48 bytes).
    Removing kservice.o(i.rt_strcmp), (28 bytes).
    Removing kservice.o(i.rt_strdup), (40 bytes).
    Removing kservice.o(i.rt_strlen), (18 bytes).
    Removing kservice.o(i.rt_strncmp), (40 bytes).
    Removing kservice.o(i.rt_strnlen), (24 bytes).
    Removing kservice.o(i.rt_strstr), (58 bytes).
    Removing kservice.o(i.rt_vsnprintf), (808 bytes).
    Removing kservice.o(i.rt_vsprintf), (22 bytes).
    Removing kservice.o(i.skip_atoi), (38 bytes).
    Removing kservice.o(.data), (4 bytes).
    Removing mem.o(i.rt_calloc), (34 bytes).
    Removing mem.o(i.rt_memory_info), (40 bytes).
    Removing mem.o(i.rt_realloc), (296 bytes).
    Removing object.o(i.rt_object_find), (86 bytes).
    Removing object.o(i.rt_system_object_init), (2 bytes).
    Removing scheduler.o(i.rt_critical_level), (12 bytes).
    Removing thread.o(i.rt_thread_control), (118 bytes).
    Removing thread.o(i.rt_thread_delete), (64 bytes).
    Removing thread.o(i.rt_thread_detach), (76 bytes).
    Removing thread.o(i.rt_thread_find), (82 bytes).
    Removing timer.o(i.rt_timer_create), (54 bytes).
    Removing timer.o(i.rt_timer_delete), (32 bytes).
    Removing timer.o(i.rt_timer_list_next_timeout), (28 bytes).
    Removing timer.o(i.rt_timer_next_timeout_tick), (16 bytes).

419 unused section(s) (total 19018 bytes) removed from the image.

==============================================================================

Image Symbol Table

    Local Symbols

    Symbol Name                              Value     Ov Type        Size  Object(Section)

    ../clib/angel/boardlib.s                 0x00000000   Number         0  boardinit1.o ABSOLUTE
    ../clib/angel/boardlib.s                 0x00000000   Number         0  boardinit2.o ABSOLUTE
    ../clib/angel/boardlib.s                 0x00000000   Number         0  boardinit3.o ABSOLUTE
    ../clib/angel/boardlib.s                 0x00000000   Number         0  boardshut.o ABSOLUTE
    ../clib/angel/handlers.s                 0x00000000   Number         0  __scatter_zi.o ABSOLUTE
    ../clib/angel/handlers.s                 0x00000000   Number         0  __scatter_copy.o ABSOLUTE
    ../clib/angel/kernel.s                   0x00000000   Number         0  rtexit.o ABSOLUTE
    ../clib/angel/kernel.s                   0x00000000   Number         0  rtexit2.o ABSOLUTE
    ../clib/angel/kernel.s                   0x00000000   Number         0  __rtentry.o ABSOLUTE
    ../clib/angel/kernel.s                   0x00000000   Number         0  __rtentry4.o ABSOLUTE
    ../clib/angel/kernel.s                   0x00000000   Number         0  __rtentry2.o ABSOLUTE
    ../clib/angel/rt.s                       0x00000000   Number         0  rt_raise.o ABSOLUTE
    ../clib/angel/rt.s                       0x00000000   Number         0  rt_locale.o ABSOLUTE
    ../clib/angel/rt.s                       0x00000000   Number         0  rt_ctype_table.o ABSOLUTE
    ../clib/angel/rt.s                       0x00000000   Number         0  rt_locale_intlibspace.o ABSOLUTE
    ../clib/angel/scatter.s                  0x00000000   Number         0  __scatter.o ABSOLUTE
    ../clib/angel/startup.s                  0x00000000   Number         0  __main.o ABSOLUTE
    ../clib/angel/sys.s                      0x00000000   Number         0  libspace.o ABSOLUTE
    ../clib/angel/sys.s                      0x00000000   Number         0  use_no_semi.o ABSOLUTE
    ../clib/angel/sys.s                      0x00000000   Number         0  sys_stackheap_outer.o ABSOLUTE
    ../clib/angel/sys.s                      0x00000000   Number         0  indicate_semi.o ABSOLUTE
    ../clib/angel/sysapp.c                   0x00000000   Number         0  sys_command.o ABSOLUTE
    ../clib/angel/sysapp.c                   0x00000000   Number         0  sys_wrch.o ABSOLUTE
    ../clib/angel/sysapp.c                   0x00000000   Number         0  sys_exit.o ABSOLUTE
    ../clib/armsys.c                         0x00000000   Number         0  no_argv.o ABSOLUTE
    ../clib/armsys.c                         0x00000000   Number         0  _get_argv_nomalloc.o ABSOLUTE
    ../clib/armsys.c                         0x00000000   Number         0  argv_veneer.o ABSOLUTE
    ../clib/armsys.c                         0x00000000   Number         0  argv_veneer.o ABSOLUTE
    ../clib/ctype.c                          0x00000000   Number         0  isspace.o ABSOLUTE
    ../clib/heapalloc.c                      0x00000000   Number         0  hrguard.o ABSOLUTE
    ../clib/heapaux.c                        0x00000000   Number         0  heapauxi.o ABSOLUTE
    ../clib/libinit.s                        0x00000000   Number         0  libshutdown2.o ABSOLUTE
    ../clib/libinit.s                        0x00000000   Number         0  libshutdown.o ABSOLUTE
    ../clib/libinit.s                        0x00000000   Number         0  libinit.o ABSOLUTE
    ../clib/libinit.s                        0x00000000   Number         0  libinit2.o ABSOLUTE
    ../clib/locale.s                         0x00000000   Number         0  lc_ctype_c.o ABSOLUTE
    ../clib/memcpset.s                       0x00000000   Number         0  rt_memcpy_v6.o ABSOLUTE
    ../clib/memcpset.s                       0x00000000   Number         0  rt_memclr_w.o ABSOLUTE
    ../clib/memcpset.s                       0x00000000   Number         0  strcmpv7m.o ABSOLUTE
    ../clib/memcpset.s                       0x00000000   Number         0  rt_memclr.o ABSOLUTE
    ../clib/memcpset.s                       0x00000000   Number         0  rt_memcpy_w.o ABSOLUTE
    ../clib/misc.s                           0x00000000   Number         0  printf_stubs.o ABSOLUTE
    ../clib/printf.c                         0x00000000   Number         0  _printf_char_common.o ABSOLUTE
    ../clib/printf.c                         0x00000000   Number         0  _printf_dec.o ABSOLUTE
    ../clib/printf.c                         0x00000000   Number         0  __printf_nopercent.o ABSOLUTE
    ../clib/printf.c                         0x00000000   Number         0  _printf_hex_int_ptr.o ABSOLUTE
    ../clib/printf.c                         0x00000000   Number         0  __2snprintf.o ABSOLUTE
    ../clib/printf.c                         0x00000000   Number         0  _printf_intcommon.o ABSOLUTE
    ../clib/printf.c                         0x00000000   Number         0  _printf_hex_ptr.o ABSOLUTE
    ../clib/printf.c                         0x00000000   Number         0  _printf_hex_ll.o ABSOLUTE
    ../clib/printf.c                         0x00000000   Number         0  __printf_flags.o ABSOLUTE
    ../clib/printf.c                         0x00000000   Number         0  __printf_flags_wp.o ABSOLUTE
    ../clib/printf.c                         0x00000000   Number         0  noretval__2snprintf.o ABSOLUTE
    ../clib/printf.c                         0x00000000   Number         0  __printf.o ABSOLUTE
    ../clib/printf.c                         0x00000000   Number         0  __printf_flags_ss_wp.o ABSOLUTE
    ../clib/printf.c                         0x00000000   Number         0  _printf_pad.o ABSOLUTE
    ../clib/printf.c                         0x00000000   Number         0  _printf_hex_int.o ABSOLUTE
    ../clib/printf.c                         0x00000000   Number         0  _printf_str.o ABSOLUTE
    ../clib/printf.c                         0x00000000   Number         0  __printf_ss_wp.o ABSOLUTE
    ../clib/printf.c                         0x00000000   Number         0  _printf_hex_int_ll.o ABSOLUTE
    ../clib/printf.c                         0x00000000   Number         0  _printf_hex_ll_ptr.o ABSOLUTE
    ../clib/printf.c                         0x00000000   Number         0  __printf_wp.o ABSOLUTE
    ../clib/printf.c                         0x00000000   Number         0  __printf_flags_ss.o ABSOLUTE
    ../clib/printf.c                         0x00000000   Number         0  _sputc.o ABSOLUTE
    ../clib/printf.c                         0x00000000   Number         0  __printf_ss.o ABSOLUTE
    ../clib/printf.c                         0x00000000   Number         0  _snputc.o ABSOLUTE
    ../clib/printf.c                         0x00000000   Number         0  _printf_hex_int_ll_ptr.o ABSOLUTE
    ../clib/printf.c                         0x00000000   Number         0  _printf_char.o ABSOLUTE
    ../clib/printf_percent.s                 0x00000000   Number         0  _printf_percent.o ABSOLUTE
    ../clib/printf_percent.s                 0x00000000   Number         0  _printf_d.o ABSOLUTE
    ../clib/printf_percent.s                 0x00000000   Number         0  _printf_x.o ABSOLUTE
    ../clib/printf_percent.s                 0x00000000   Number         0  _printf_percent_end.o ABSOLUTE
    ../clib/printf_percent.s                 0x00000000   Number         0  _printf_s.o ABSOLUTE
    ../clib/scanf.c                          0x00000000   Number         0  __0sscanf.o ABSOLUTE
    ../clib/scanf.c                          0x00000000   Number         0  _scanf_int.o ABSOLUTE
    ../clib/scanf.c                          0x00000000   Number         0  _scanf.o ABSOLUTE
    ../clib/scanf.c                          0x00000000   Number         0  _sgetc.o ABSOLUTE
    ../clib/scanf.c                          0x00000000   Number         0  _chval.o ABSOLUTE
    ../clib/scanf.c                          0x00000000   Number         0  scanf_char.o ABSOLUTE
    ../clib/signal.c                         0x00000000   Number         0  defsig_other.o ABSOLUTE
    ../clib/signal.c                         0x00000000   Number         0  defsig_abrt_inner.o ABSOLUTE
    ../clib/signal.c                         0x00000000   Number         0  defsig_fpe_inner.o ABSOLUTE
    ../clib/signal.c                         0x00000000   Number         0  defsig_rtmem_outer.o ABSOLUTE
    ../clib/signal.c                         0x00000000   Number         0  defsig_exit.o ABSOLUTE
    ../clib/signal.c                         0x00000000   Number         0  defsig_segv_inner.o ABSOLUTE
    ../clib/signal.c                         0x00000000   Number         0  defsig_general.o ABSOLUTE
    ../clib/signal.c                         0x00000000   Number         0  defsig_rtred_inner.o ABSOLUTE
    ../clib/signal.c                         0x00000000   Number         0  defsig_stak_inner.o ABSOLUTE
    ../clib/signal.c                         0x00000000   Number         0  defsig_pvfn_inner.o ABSOLUTE
    ../clib/signal.c                         0x00000000   Number         0  defsig_rtmem_inner.o ABSOLUTE
    ../clib/signal.c                         0x00000000   Number         0  __raise.o ABSOLUTE
    ../clib/signal.c                         0x00000000   Number         0  defsig_rtmem_formal.o ABSOLUTE
    ../clib/signal.c                         0x00000000   Number         0  defsig_cppl_inner.o ABSOLUTE
    ../clib/signal.s                         0x00000000   Number         0  defsig.o ABSOLUTE
    ../clib/stdlib.c                         0x00000000   Number         0  exit.o ABSOLUTE
    ../clib/string.c                         0x00000000   Number         0  memcmp.o ABSOLUTE
    ../clib/string.c                         0x00000000   Number         0  strlen.o ABSOLUTE
    ../clib/string.c                         0x00000000   Number         0  memchr.o ABSOLUTE
    ../fplib/fpinit.s                        0x00000000   Number         0  fpinit.o ABSOLUTE
    RTE\Device\STM32F103C8\startup_stm32f10x_md.s 0x00000000   Number         0  startup_stm32f10x_md.o ABSOLUTE
    RTE\Device\STM32F103C8\system_stm32f10x.c 0x00000000   Number         0  system_stm32f10x.o ABSOLUTE
    RTE\RTOS\board.c                         0x00000000   Number         0  board.o ABSOLUTE
    RTE\\Device\\STM32F103C8\\system_stm32f10x.c 0x00000000   Number         0  system_stm32f10x.o ABSOLUTE
    d:\Keil_v5\ARM\PACK\Keil\STM32F1xx_DFP\1.1.0\Device\StdPeriph_Driver\src\misc.c 0x00000000   Number         0  misc.o ABSOLUTE
    d:\Keil_v5\ARM\PACK\Keil\STM32F1xx_DFP\1.1.0\Device\StdPeriph_Driver\src\stm32f10x_dma.c 0x00000000   Number         0  stm32f10x_dma.o ABSOLUTE
    d:\Keil_v5\ARM\PACK\Keil\STM32F1xx_DFP\1.1.0\Device\StdPeriph_Driver\src\stm32f10x_exti.c 0x00000000   Number         0  stm32f10x_exti.o ABSOLUTE
    d:\Keil_v5\ARM\PACK\Keil\STM32F1xx_DFP\1.1.0\Device\StdPeriph_Driver\src\stm32f10x_gpio.c 0x00000000   Number         0  stm32f10x_gpio.o ABSOLUTE
    d:\Keil_v5\ARM\PACK\Keil\STM32F1xx_DFP\1.1.0\Device\StdPeriph_Driver\src\stm32f10x_i2c.c 0x00000000   Number         0  stm32f10x_i2c.o ABSOLUTE
    d:\Keil_v5\ARM\PACK\Keil\STM32F1xx_DFP\1.1.0\Device\StdPeriph_Driver\src\stm32f10x_rcc.c 0x00000000   Number         0  stm32f10x_rcc.o ABSOLUTE
    d:\Keil_v5\ARM\PACK\Keil\STM32F1xx_DFP\1.1.0\Device\StdPeriph_Driver\src\stm32f10x_spi.c 0x00000000   Number         0  stm32f10x_spi.o ABSOLUTE
    d:\Keil_v5\ARM\PACK\Keil\STM32F1xx_DFP\1.1.0\Device\StdPeriph_Driver\src\stm32f10x_tim.c 0x00000000   Number         0  stm32f10x_tim.o ABSOLUTE
    d:\Keil_v5\ARM\PACK\Keil\STM32F1xx_DFP\1.1.0\Device\StdPeriph_Driver\src\stm32f10x_usart.c 0x00000000   Number         0  stm32f10x_usart.o ABSOLUTE
    d:\Keil_v5\ARM\PACK\Keil\STM32F1xx_DFP\1.1.0\Device\StdPeriph_Driver\src\stm32f10x_wwdg.c 0x00000000   Number         0  stm32f10x_wwdg.o ABSOLUTE
    d:\Keil_v5\ARM\PACK\rt-thread\rtthread\3.0.3\libcpu\arm\cortex-m3\context_rvds.S 0x00000000   Number         0  context_rvds.o ABSOLUTE
    d:\Keil_v5\ARM\PACK\rt-thread\rtthread\3.0.3\libcpu\arm\cortex-m3\cpuport.c 0x00000000   Number         0  cpuport.o ABSOLUTE
    d:\Keil_v5\ARM\PACK\rt-thread\rtthread\3.0.3\src\clock.c 0x00000000   Number         0  clock.o ABSOLUTE
    d:\Keil_v5\ARM\PACK\rt-thread\rtthread\3.0.3\src\components.c 0x00000000   Number         0  components.o ABSOLUTE
    d:\Keil_v5\ARM\PACK\rt-thread\rtthread\3.0.3\src\device.c 0x00000000   Number         0  device.o ABSOLUTE
    d:\Keil_v5\ARM\PACK\rt-thread\rtthread\3.0.3\src\idle.c 0x00000000   Number         0  idle.o ABSOLUTE
    d:\Keil_v5\ARM\PACK\rt-thread\rtthread\3.0.3\src\ipc.c 0x00000000   Number         0  ipc.o ABSOLUTE
    d:\Keil_v5\ARM\PACK\rt-thread\rtthread\3.0.3\src\irq.c 0x00000000   Number         0  irq.o ABSOLUTE
    d:\Keil_v5\ARM\PACK\rt-thread\rtthread\3.0.3\src\kservice.c 0x00000000   Number         0  kservice.o ABSOLUTE
    d:\Keil_v5\ARM\PACK\rt-thread\rtthread\3.0.3\src\mem.c 0x00000000   Number         0  mem.o ABSOLUTE
    d:\Keil_v5\ARM\PACK\rt-thread\rtthread\3.0.3\src\object.c 0x00000000   Number         0  object.o ABSOLUTE
    d:\Keil_v5\ARM\PACK\rt-thread\rtthread\3.0.3\src\scheduler.c 0x00000000   Number         0  scheduler.o ABSOLUTE
    d:\Keil_v5\ARM\PACK\rt-thread\rtthread\3.0.3\src\thread.c 0x00000000   Number         0  thread.o ABSOLUTE
    d:\Keil_v5\ARM\PACK\rt-thread\rtthread\3.0.3\src\timer.c 0x00000000   Number         0  timer.o ABSOLUTE
    d:\\Keil_v5\\ARM\\PACK\\Keil\\STM32F1xx_DFP\\1.1.0\\Device\\StdPeriph_Driver\\src\\misc.c 0x00000000   Number         0  misc.o ABSOLUTE
    d:\\Keil_v5\\ARM\\PACK\\Keil\\STM32F1xx_DFP\\1.1.0\\Device\\StdPeriph_Driver\\src\\stm32f10x_dma.c 0x00000000   Number         0  stm32f10x_dma.o ABSOLUTE
    d:\\Keil_v5\\ARM\\PACK\\Keil\\STM32F1xx_DFP\\1.1.0\\Device\\StdPeriph_Driver\\src\\stm32f10x_exti.c 0x00000000   Number         0  stm32f10x_exti.o ABSOLUTE
    d:\\Keil_v5\\ARM\\PACK\\Keil\\STM32F1xx_DFP\\1.1.0\\Device\\StdPeriph_Driver\\src\\stm32f10x_gpio.c 0x00000000   Number         0  stm32f10x_gpio.o ABSOLUTE
    d:\\Keil_v5\\ARM\\PACK\\Keil\\STM32F1xx_DFP\\1.1.0\\Device\\StdPeriph_Driver\\src\\stm32f10x_i2c.c 0x00000000   Number         0  stm32f10x_i2c.o ABSOLUTE
    d:\\Keil_v5\\ARM\\PACK\\Keil\\STM32F1xx_DFP\\1.1.0\\Device\\StdPeriph_Driver\\src\\stm32f10x_rcc.c 0x00000000   Number         0  stm32f10x_rcc.o ABSOLUTE
    d:\\Keil_v5\\ARM\\PACK\\Keil\\STM32F1xx_DFP\\1.1.0\\Device\\StdPeriph_Driver\\src\\stm32f10x_spi.c 0x00000000   Number         0  stm32f10x_spi.o ABSOLUTE
    d:\\Keil_v5\\ARM\\PACK\\Keil\\STM32F1xx_DFP\\1.1.0\\Device\\StdPeriph_Driver\\src\\stm32f10x_tim.c 0x00000000   Number         0  stm32f10x_tim.o ABSOLUTE
    d:\\Keil_v5\\ARM\\PACK\\Keil\\STM32F1xx_DFP\\1.1.0\\Device\\StdPeriph_Driver\\src\\stm32f10x_usart.c 0x00000000   Number         0  stm32f10x_usart.o ABSOLUTE
    d:\\Keil_v5\\ARM\\PACK\\Keil\\STM32F1xx_DFP\\1.1.0\\Device\\StdPeriph_Driver\\src\\stm32f10x_wwdg.c 0x00000000   Number         0  stm32f10x_wwdg.o ABSOLUTE
    dc.s                                     0x00000000   Number         0  dc.o ABSOLUTE
    rt_ext\\usart.c                          0x00000000   Number         0  usart.o ABSOLUTE
    rt_ext\completion.c                      0x00000000   Number         0  completion.o ABSOLUTE
    rt_ext\dataqueue.c                       0x00000000   Number         0  dataqueue.o ABSOLUTE
    rt_ext\pipe.c                            0x00000000   Number         0  pipe.o ABSOLUTE
    rt_ext\ringbuffer.c                      0x00000000   Number         0  ringbuffer.o ABSOLUTE
    rt_ext\serial.c                          0x00000000   Number         0  serial.o ABSOLUTE
    rt_ext\usart.c                           0x00000000   Number         0  usart.o ABSOLUTE
    rt_ext\waitqueue.c                       0x00000000   Number         0  waitqueue.o ABSOLUTE
    rt_ext\workqueue.c                       0x00000000   Number         0  workqueue.o ABSOLUTE
    src\SEE_i2c.c                            0x00000000   Number         0  see_i2c.o ABSOLUTE
    src\\SEE_i2c.c                           0x00000000   Number         0  see_i2c.o ABSOLUTE
    src\\config_utils.c                      0x00000000   Number         0  config_utils.o ABSOLUTE
    src\\crc32.c                             0x00000000   Number         0  crc32.o ABSOLUTE
    src\\main.c                              0x00000000   Number         0  main.o ABSOLUTE
    src\\time_utils.c                        0x00000000   Number         0  time_utils.o ABSOLUTE
    src\\usart_utils.c                       0x00000000   Number         0  usart_utils.o ABSOLUTE
    src\\utils.c                             0x00000000   Number         0  utils.o ABSOLUTE
    src\config_utils.c                       0x00000000   Number         0  config_utils.o ABSOLUTE
    src\crc32.c                              0x00000000   Number         0  crc32.o ABSOLUTE
    src\main.c                               0x00000000   Number         0  main.o ABSOLUTE
    src\time_utils.c                         0x00000000   Number         0  time_utils.o ABSOLUTE
    src\usart_utils.c                        0x00000000   Number         0  usart_utils.o ABSOLUTE
    src\utils.c                              0x00000000   Number         0  utils.o ABSOLUTE
    RESET                                    0x08000000   Section      236  startup_stm32f10x_md.o(RESET)
    !!!main                                  0x080000ec   Section        8  __main.o(!!!main)
    !!!scatter                               0x080000f4   Section       52  __scatter.o(!!!scatter)
    !!handler_copy                           0x08000128   Section       26  __scatter_copy.o(!!handler_copy)
    !!handler_zi                             0x08000144   Section       28  __scatter_zi.o(!!handler_zi)
    .ARM.Collect$$_printf_percent$$00000000  0x08000160   Section        0  _printf_percent.o(.ARM.Collect$$_printf_percent$$00000000)
    .ARM.Collect$$_printf_percent$$00000009  0x08000160   Section        6  _printf_d.o(.ARM.Collect$$_printf_percent$$00000009)
    .ARM.Collect$$_printf_percent$$0000000C  0x08000166   Section        6  _printf_x.o(.ARM.Collect$$_printf_percent$$0000000C)
    .ARM.Collect$$_printf_percent$$00000014  0x0800016c   Section        6  _printf_s.o(.ARM.Collect$$_printf_percent$$00000014)
    .ARM.Collect$$_printf_percent$$00000017  0x08000172   Section        4  _printf_percent_end.o(.ARM.Collect$$_printf_percent$$00000017)
    .ARM.Collect$$libinit$$00000000          0x08000176   Section        2  libinit.o(.ARM.Collect$$libinit$$00000000)
    .ARM.Collect$$libinit$$00000002          0x08000178   Section        0  libinit2.o(.ARM.Collect$$libinit$$00000002)
    .ARM.Collect$$libinit$$00000004          0x08000178   Section        0  libinit2.o(.ARM.Collect$$libinit$$00000004)
    .ARM.Collect$$libinit$$0000000A          0x08000178   Section        0  libinit2.o(.ARM.Collect$$libinit$$0000000A)
    .ARM.Collect$$libinit$$0000000C          0x08000178   Section        0  libinit2.o(.ARM.Collect$$libinit$$0000000C)
    .ARM.Collect$$libinit$$0000000E          0x08000178   Section        0  libinit2.o(.ARM.Collect$$libinit$$0000000E)
    .ARM.Collect$$libinit$$0000000F          0x08000178   Section        6  libinit2.o(.ARM.Collect$$libinit$$0000000F)
    .ARM.Collect$$libinit$$00000011          0x0800017e   Section        0  libinit2.o(.ARM.Collect$$libinit$$00000011)
    .ARM.Collect$$libinit$$00000012          0x0800017e   Section       12  libinit2.o(.ARM.Collect$$libinit$$00000012)
    .ARM.Collect$$libinit$$00000013          0x0800018a   Section        0  libinit2.o(.ARM.Collect$$libinit$$00000013)
    .ARM.Collect$$libinit$$00000015          0x0800018a   Section        0  libinit2.o(.ARM.Collect$$libinit$$00000015)
    .ARM.Collect$$libinit$$00000017          0x0800018a   Section        0  libinit2.o(.ARM.Collect$$libinit$$00000017)
    .ARM.Collect$$libinit$$00000019          0x0800018a   Section        0  libinit2.o(.ARM.Collect$$libinit$$00000019)
    .ARM.Collect$$libinit$$0000001B          0x0800018a   Section        0  libinit2.o(.ARM.Collect$$libinit$$0000001B)
    .ARM.Collect$$libinit$$0000001D          0x0800018a   Section        0  libinit2.o(.ARM.Collect$$libinit$$0000001D)
    .ARM.Collect$$libinit$$0000001F          0x0800018a   Section        0  libinit2.o(.ARM.Collect$$libinit$$0000001F)
    .ARM.Collect$$libinit$$00000021          0x0800018a   Section        0  libinit2.o(.ARM.Collect$$libinit$$00000021)
    .ARM.Collect$$libinit$$00000023          0x0800018a   Section        0  libinit2.o(.ARM.Collect$$libinit$$00000023)
    .ARM.Collect$$libinit$$00000025          0x0800018a   Section        0  libinit2.o(.ARM.Collect$$libinit$$00000025)
    .ARM.Collect$$libinit$$0000002C          0x0800018a   Section        0  libinit2.o(.ARM.Collect$$libinit$$0000002C)
    .ARM.Collect$$libinit$$0000002E          0x0800018a   Section        0  libinit2.o(.ARM.Collect$$libinit$$0000002E)
    .ARM.Collect$$libinit$$00000030          0x0800018a   Section        0  libinit2.o(.ARM.Collect$$libinit$$00000030)
    .ARM.Collect$$libinit$$00000032          0x0800018a   Section        0  libinit2.o(.ARM.Collect$$libinit$$00000032)
    .ARM.Collect$$libinit$$00000033          0x0800018a   Section        2  libinit2.o(.ARM.Collect$$libinit$$00000033)
    .ARM.Collect$$libshutdown$$00000000      0x0800018c   Section        2  libshutdown.o(.ARM.Collect$$libshutdown$$00000000)
    .ARM.Collect$$libshutdown$$00000002      0x0800018e   Section        0  libshutdown2.o(.ARM.Collect$$libshutdown$$00000002)
    .ARM.Collect$$libshutdown$$00000004      0x0800018e   Section        0  libshutdown2.o(.ARM.Collect$$libshutdown$$00000004)
    .ARM.Collect$$libshutdown$$00000007      0x0800018e   Section        0  libshutdown2.o(.ARM.Collect$$libshutdown$$00000007)
    .ARM.Collect$$libshutdown$$0000000A      0x0800018e   Section        0  libshutdown2.o(.ARM.Collect$$libshutdown$$0000000A)
    .ARM.Collect$$libshutdown$$0000000C      0x0800018e   Section        0  libshutdown2.o(.ARM.Collect$$libshutdown$$0000000C)
    .ARM.Collect$$libshutdown$$0000000F      0x0800018e   Section        0  libshutdown2.o(.ARM.Collect$$libshutdown$$0000000F)
    .ARM.Collect$$libshutdown$$00000010      0x0800018e   Section        2  libshutdown2.o(.ARM.Collect$$libshutdown$$00000010)
    .ARM.Collect$$rtentry$$00000000          0x08000190   Section        0  __rtentry.o(.ARM.Collect$$rtentry$$00000000)
    .ARM.Collect$$rtentry$$00000002          0x08000190   Section        0  __rtentry2.o(.ARM.Collect$$rtentry$$00000002)
    .ARM.Collect$$rtentry$$00000004          0x08000190   Section        6  __rtentry4.o(.ARM.Collect$$rtentry$$00000004)
    .ARM.Collect$$rtentry$$00000009          0x08000196   Section        0  __rtentry2.o(.ARM.Collect$$rtentry$$00000009)
    .ARM.Collect$$rtentry$$0000000A          0x08000196   Section        4  __rtentry2.o(.ARM.Collect$$rtentry$$0000000A)
    .ARM.Collect$$rtentry$$0000000C          0x0800019a   Section        0  __rtentry2.o(.ARM.Collect$$rtentry$$0000000C)
    .ARM.Collect$$rtentry$$0000000D          0x0800019a   Section        8  __rtentry2.o(.ARM.Collect$$rtentry$$0000000D)
    .ARM.Collect$$rtexit$$00000000           0x080001a2   Section        2  rtexit.o(.ARM.Collect$$rtexit$$00000000)
    .ARM.Collect$$rtexit$$00000002           0x080001a4   Section        0  rtexit2.o(.ARM.Collect$$rtexit$$00000002)
    .ARM.Collect$$rtexit$$00000003           0x080001a4   Section        4  rtexit2.o(.ARM.Collect$$rtexit$$00000003)
    .ARM.Collect$$rtexit$$00000004           0x080001a8   Section        6  rtexit2.o(.ARM.Collect$$rtexit$$00000004)
    .text                                    0x080001b0   Section       64  startup_stm32f10x_md.o(.text)
    .text                                    0x080001f0   Section      240  context_rvds.o(.text)
    .text                                    0x080002e0   Section        0  __2snprintf.o(.text)
    .text                                    0x08000318   Section        0  _printf_pad.o(.text)
    .text                                    0x08000366   Section        0  _printf_str.o(.text)
    .text                                    0x080003b8   Section        0  _printf_dec.o(.text)
    .text                                    0x08000430   Section        0  _printf_hex_int.o(.text)
    .text                                    0x08000488   Section        0  __printf_flags_wp.o(.text)
    .text                                    0x080005c0   Section        0  __0sscanf.o(.text)
    .text                                    0x080005fc   Section        0  _scanf_int.o(.text)
    .text                                    0x08000748   Section        0  memcmp.o(.text)
    .text                                    0x080007a0   Section        0  strlen.o(.text)
    .text                                    0x080007de   Section        0  memchr.o(.text)
    .text                                    0x080007f2   Section      138  rt_memcpy_v6.o(.text)
    .text                                    0x0800087c   Section       68  rt_memclr.o(.text)
    .text                                    0x080008c0   Section       78  rt_memclr_w.o(.text)
    .text                                    0x08000910   Section      128  strcmpv7m.o(.text)
    .text                                    0x08000990   Section        0  heapauxi.o(.text)
    .text                                    0x08000996   Section        0  _printf_intcommon.o(.text)
    .text                                    0x08000a48   Section        0  _printf_char_common.o(.text)
    _printf_input_char                       0x08000a49   Thumb Code    10  _printf_char_common.o(.text)
    .text                                    0x08000a78   Section        0  _sputc.o(.text)
    .text                                    0x08000a82   Section        0  _snputc.o(.text)
    .text                                    0x08000a92   Section        0  _printf_char.o(.text)
    .text                                    0x08000abe   Section        0  _chval.o(.text)
    .text                                    0x08000adc   Section        0  scanf_char.o(.text)
    _scanf_char_input                        0x08000add   Thumb Code    12  scanf_char.o(.text)
    .text                                    0x08000b08   Section        0  _sgetc.o(.text)
    .text                                    0x08000b48   Section      100  rt_memcpy_w.o(.text)
    .text                                    0x08000bac   Section        0  isspace.o(.text)
    .text                                    0x08000bc0   Section        0  _scanf.o(.text)
    .text                                    0x08000f34   Section       74  sys_stackheap_outer.o(.text)
    .text                                    0x08000f80   Section       16  rt_ctype_table.o(.text)
    .text                                    0x08000f90   Section        0  exit.o(.text)
    .text                                    0x08000fa4   Section        8  libspace.o(.text)
    .text                                    0x08000fac   Section        8  rt_locale_intlibspace.o(.text)
    .text                                    0x08000fb4   Section        0  sys_exit.o(.text)
    .text                                    0x08000fc0   Section        2  use_no_semi.o(.text)
    .text                                    0x08000fc2   Section        0  indicate_semi.o(.text)
    i.$Sub$$main                             0x08000fc2   Section        0  components.o(i.$Sub$$main)
    i.ATCMD_waitOK                           0x08000fd0   Section        0  main.o(i.ATCMD_waitOK)
    i.ATDELO_cmd                             0x08001018   Section        0  main.o(i.ATDELO_cmd)
    ATDELO_cmd                               0x08001019   Thumb Code    74  main.o(i.ATDELO_cmd)
    i.ATIMEIBD_cmd                           0x08001080   Section        0  main.o(i.ATIMEIBD_cmd)
    ATIMEIBD_cmd                             0x08001081   Thumb Code   126  main.o(i.ATIMEIBD_cmd)
    i.ATIPPORT_cmd                           0x08001130   Section        0  main.o(i.ATIPPORT_cmd)
    ATIPPORT_cmd                             0x08001131   Thumb Code   204  main.o(i.ATIPPORT_cmd)
    i.ATRS232_cmd                            0x08001248   Section        0  main.o(i.ATRS232_cmd)
    ATRS232_cmd                              0x08001249   Thumb Code   190  main.o(i.ATRS232_cmd)
    i.ATSAVE_cmd                             0x0800134c   Section        0  main.o(i.ATSAVE_cmd)
    ATSAVE_cmd                               0x0800134d   Thumb Code    64  main.o(i.ATSAVE_cmd)
    i.ATSEMO_cmd                             0x080013a4   Section        0  main.o(i.ATSEMO_cmd)
    ATSEMO_cmd                               0x080013a5   Thumb Code   190  main.o(i.ATSEMO_cmd)
    i.DMA1_Channel3_IRQHandler               0x080014a0   Section        0  usart.o(i.DMA1_Channel3_IRQHandler)
    i.DMA1_Channel5_IRQHandler               0x080014b8   Section        0  usart.o(i.DMA1_Channel5_IRQHandler)
    i.DMA_ClearFlag                          0x080014d0   Section        0  stm32f10x_dma.o(i.DMA_ClearFlag)
    i.DMA_GetCurrDataCounter                 0x080014ec   Section        0  stm32f10x_dma.o(i.DMA_GetCurrDataCounter)
    i.EXTI15_10_IRQHandler                   0x080014f4   Section        0  main.o(i.EXTI15_10_IRQHandler)
    i.EXTI_ClearITPendingBit                 0x0800154c   Section        0  stm32f10x_exti.o(i.EXTI_ClearITPendingBit)
    i.EXTI_GetITStatus                       0x08001558   Section        0  stm32f10x_exti.o(i.EXTI_GetITStatus)
    i.EXTI_Init                              0x08001580   Section        0  stm32f10x_exti.o(i.EXTI_Init)
    i.GPIO_Configuration                     0x08001614   Section        0  main.o(i.GPIO_Configuration)
    i.GPIO_EXTILineConfig                    0x080016f4   Section        0  stm32f10x_gpio.o(i.GPIO_EXTILineConfig)
    i.GPIO_Init                              0x08001734   Section        0  stm32f10x_gpio.o(i.GPIO_Init)
    i.GPIO_ResetBits                         0x0800184a   Section        0  stm32f10x_gpio.o(i.GPIO_ResetBits)
    i.GPIO_SetBits                           0x0800184e   Section        0  stm32f10x_gpio.o(i.GPIO_SetBits)
    i.I2C_AcknowledgeConfig                  0x08001852   Section        0  stm32f10x_i2c.o(i.I2C_AcknowledgeConfig)
    i.I2C_CheckEvent                         0x0800186a   Section        0  stm32f10x_i2c.o(i.I2C_CheckEvent)
    i.I2C_ClearFlag                          0x08001894   Section        0  stm32f10x_i2c.o(i.I2C_ClearFlag)
    i.I2C_Cmd                                0x080018a0   Section        0  stm32f10x_i2c.o(i.I2C_Cmd)
    i.I2C_GenerateSTART                      0x080018b8   Section        0  stm32f10x_i2c.o(i.I2C_GenerateSTART)
    i.I2C_GenerateSTOP                       0x080018d0   Section        0  stm32f10x_i2c.o(i.I2C_GenerateSTOP)
    i.I2C_GetFlagStatus                      0x080018e8   Section        0  stm32f10x_i2c.o(i.I2C_GetFlagStatus)
    i.I2C_Init                               0x08001924   Section        0  stm32f10x_i2c.o(i.I2C_Init)
    i.I2C_ReceiveData                        0x08001a10   Section        0  stm32f10x_i2c.o(i.I2C_ReceiveData)
    i.I2C_Send7bitAddress                    0x08001a18   Section        0  stm32f10x_i2c.o(i.I2C_Send7bitAddress)
    i.I2C_SendData                           0x08001a2a   Section        0  stm32f10x_i2c.o(i.I2C_SendData)
    i.IWDG_Feed                              0x08001a2e   Section        0  time_utils.o(i.IWDG_Feed)
    i.IWDG_Init                              0x08001a30   Section        0  time_utils.o(i.IWDG_Init)
    i.NVIC_Init                              0x08001a34   Section        0  misc.o(i.NVIC_Init)
    i.NVIC_PriorityGroupConfig               0x08001aa4   Section        0  misc.o(i.NVIC_PriorityGroupConfig)
    i.RCC_APB1PeriphClockCmd                 0x08001ab8   Section        0  stm32f10x_rcc.o(i.RCC_APB1PeriphClockCmd)
    i.RCC_APB2PeriphClockCmd                 0x08001ad8   Section        0  stm32f10x_rcc.o(i.RCC_APB2PeriphClockCmd)
    i.RCC_Configuration                      0x08001af8   Section        0  main.o(i.RCC_Configuration)
    i.RCC_GetClocksFreq                      0x08001b10   Section        0  stm32f10x_rcc.o(i.RCC_GetClocksFreq)
    i.RST_Configuration                      0x08001be4   Section        0  main.o(i.RST_Configuration)
    i.SEE_i2c_init                           0x08001c2c   Section        0  see_i2c.o(i.SEE_i2c_init)
    i.SEE_i2c_read                           0x08001c78   Section        0  see_i2c.o(i.SEE_i2c_read)
    i.SEE_i2c_write                          0x08001e44   Section        0  see_i2c.o(i.SEE_i2c_write)
    i.SetSysClock                            0x08001f70   Section        0  system_stm32f10x.o(i.SetSysClock)
    SetSysClock                              0x08001f71   Thumb Code     8  system_stm32f10x.o(i.SetSysClock)
    i.SetSysClockTo72                        0x08001f78   Section        0  system_stm32f10x.o(i.SetSysClockTo72)
    SetSysClockTo72                          0x08001f79   Thumb Code   214  system_stm32f10x.o(i.SetSysClockTo72)
    i.SysTick_Handler                        0x08002058   Section        0  board.o(i.SysTick_Handler)
    i.SystemCoreClockUpdate                  0x08002068   Section        0  system_stm32f10x.o(i.SystemCoreClockUpdate)
    i.SystemInit                             0x0800210c   Section        0  system_stm32f10x.o(i.SystemInit)
    i.TIM3_IRQHandler                        0x0800216c   Section        0  time_utils.o(i.TIM3_IRQHandler)
    i.TIM3_Int_Init                          0x0800219c   Section        0  time_utils.o(i.TIM3_Int_Init)
    i.TIM_ClearITPendingBit                  0x080021fc   Section        0  stm32f10x_tim.o(i.TIM_ClearITPendingBit)
    i.TIM_Cmd                                0x08002202   Section        0  stm32f10x_tim.o(i.TIM_Cmd)
    i.TIM_GetITStatus                        0x0800221a   Section        0  stm32f10x_tim.o(i.TIM_GetITStatus)
    i.TIM_ITConfig                           0x0800223c   Section        0  stm32f10x_tim.o(i.TIM_ITConfig)
    i.TIM_TimeBaseInit                       0x08002250   Section        0  stm32f10x_tim.o(i.TIM_TimeBaseInit)
    i.USART1_IRQHandler                      0x080022f4   Section        0  usart.o(i.USART1_IRQHandler)
    i.USART3_IRQHandler                      0x0800230c   Section        0  usart.o(i.USART3_IRQHandler)
    i.USART_ClearITPendingBit                0x08002324   Section        0  stm32f10x_usart.o(i.USART_ClearITPendingBit)
    i.USART_Cmd                              0x08002342   Section        0  stm32f10x_usart.o(i.USART_Cmd)
    i.USART_GetFlagStatus                    0x0800235a   Section        0  stm32f10x_usart.o(i.USART_GetFlagStatus)
    i.USART_GetITStatus                      0x08002374   Section        0  stm32f10x_usart.o(i.USART_GetITStatus)
    i.USART_ITConfig                         0x080023c8   Section        0  stm32f10x_usart.o(i.USART_ITConfig)
    i.USART_Init                             0x08002414   Section        0  stm32f10x_usart.o(i.USART_Init)
    i.USART_ReceiveData                      0x080024ec   Section        0  stm32f10x_usart.o(i.USART_ReceiveData)
    i.USART_SendData                         0x080024f6   Section        0  stm32f10x_usart.o(i.USART_SendData)
    i.USERCOM_direct_BC95COM                 0x08002500   Section        0  main.o(i.USERCOM_direct_BC95COM)
    i._SysTick_Config                        0x08002564   Section        0  board.o(i._SysTick_Config)
    _SysTick_Config                          0x08002565   Thumb Code    44  board.o(i._SysTick_Config)
    i.__rt_ffs                               0x08002594   Section        0  kservice.o(i.__rt_ffs)
    i._has_defunct_thread                    0x080025e0   Section        0  idle.o(i._has_defunct_thread)
    _has_defunct_thread                      0x080025e1   Thumb Code    16  idle.o(i._has_defunct_thread)
    i._is_digit                              0x080025f4   Section        0  __printf_wp.o(i._is_digit)
    i._rt_thread_init                        0x08002604   Section        0  thread.o(i._rt_thread_init)
    _rt_thread_init                          0x08002605   Thumb Code   124  thread.o(i._rt_thread_init)
    i._rt_timer_init                         0x08002688   Section        0  timer.o(i._rt_timer_init)
    _rt_timer_init                           0x08002689   Thumb Code    66  timer.o(i._rt_timer_init)
    i._rt_timer_remove                       0x080026ca   Section        0  timer.o(i._rt_timer_remove)
    _rt_timer_remove                         0x080026cb   Thumb Code    46  timer.o(i._rt_timer_remove)
    i._serial_fifo_calc_recved_len           0x080026f8   Section        0  serial.o(i._serial_fifo_calc_recved_len)
    _serial_fifo_calc_recved_len             0x080026f9   Thumb Code    60  serial.o(i._serial_fifo_calc_recved_len)
    i.bc95_cfgBaudRate                       0x08002734   Section        0  main.o(i.bc95_cfgBaudRate)
    i.checkConfigIPORT                       0x080027b8   Section        0  utils.o(i.checkConfigIPORT)
    i.checkConfigRS232                       0x0800282c   Section        0  utils.o(i.checkConfigRS232)
    i.coap_msgSend                           0x080028c0   Section        0  main.o(i.coap_msgSend)
    i.config_bc95                            0x0800296c   Section        0  main.o(i.config_bc95)
    i.config_init                            0x08002ac8   Section        0  config_utils.o(i.config_init)
    i.delay_ms                               0x08002ad0   Section        0  time_utils.o(i.delay_ms)
    i.dma_rx_done_isr                        0x08002afa   Section        0  usart.o(i.dma_rx_done_isr)
    dma_rx_done_isr                          0x08002afb   Thumb Code    54  usart.o(i.dma_rx_done_isr)
    i.dma_uart_rx_idle_isr                   0x08002b30   Section        0  usart.o(i.dma_uart_rx_idle_isr)
    dma_uart_rx_idle_isr                     0x08002b31   Thumb Code    66  usart.o(i.dma_uart_rx_idle_isr)
    i.get_IMEI                               0x08002b74   Section        0  main.o(i.get_IMEI)
    i.get_NBAND                              0x08002bfc   Section        0  main.o(i.get_NBAND)
    i.get_crc32                              0x08002c84   Section        0  crc32.o(i.get_crc32)
    i.get_timestamp                          0x08002cbc   Section        0  time_utils.o(i.get_timestamp)
    i.ghConfig                               0x08002cc8   Section        0  main.o(i.ghConfig)
    i.init_crc32_tab                         0x08002dfc   Section        0  crc32.o(i.init_crc32_tab)
    init_crc32_tab                           0x08002dfd   Thumb Code    46  crc32.o(i.init_crc32_tab)
    i.load_config                            0x08002e34   Section        0  main.o(i.load_config)
    i.main                                   0x08002e58   Section        0  main.o(i.main)
    i.main_entry                             0x08002e90   Section        0  main.o(i.main_entry)
    i.main_thread_entry                      0x08002fa8   Section        0  components.o(i.main_thread_entry)
    i.memmem                                 0x08002fb6   Section        0  utils.o(i.memmem)
    i.plug_holes                             0x08003018   Section        0  mem.o(i.plug_holes)
    plug_holes                               0x08003019   Thumb Code   108  mem.o(i.plug_holes)
    i.read_config                            0x08003090   Section        0  config_utils.o(i.read_config)
    i.rt_application_init                    0x080030e4   Section        0  components.o(i.rt_application_init)
    i.rt_completion_done                     0x08003110   Section        0  completion.o(i.rt_completion_done)
    i.rt_components_board_init               0x08003158   Section        0  components.o(i.rt_components_board_init)
    i.rt_components_init                     0x08003174   Section        0  components.o(i.rt_components_init)
    i.rt_data_queue_peak                     0x08003190   Section        0  dataqueue.o(i.rt_data_queue_peak)
    i.rt_data_queue_pop                      0x080031ea   Section        0  dataqueue.o(i.rt_data_queue_pop)
    i.rt_dma_calc_recved_len                 0x080032f0   Section        0  serial.o(i.rt_dma_calc_recved_len)
    rt_dma_calc_recved_len                   0x080032f1   Thumb Code    12  serial.o(i.rt_dma_calc_recved_len)
    i.rt_dma_recv_update_put_index           0x080032fc   Section        0  serial.o(i.rt_dma_recv_update_put_index)
    rt_dma_recv_update_put_index             0x080032fd   Thumb Code   138  serial.o(i.rt_dma_recv_update_put_index)
    i.rt_enter_critical                      0x08003388   Section        0  scheduler.o(i.rt_enter_critical)
    i.rt_exit_critical                       0x080033a8   Section        0  scheduler.o(i.rt_exit_critical)
    i.rt_free                                0x080033e4   Section        0  mem.o(i.rt_free)
    i.rt_heap_begin_get                      0x0800345c   Section        0  board.o(i.rt_heap_begin_get)
    i.rt_heap_end_get                        0x08003464   Section        0  board.o(i.rt_heap_end_get)
    i.rt_hw_board_init                       0x0800346c   Section        0  board.o(i.rt_hw_board_init)
    i.rt_hw_hard_fault_exception             0x080034a0   Section        0  cpuport.o(i.rt_hw_hard_fault_exception)
    i.rt_hw_serial_isr                       0x080034c4   Section        0  serial.o(i.rt_hw_serial_isr)
    i.rt_hw_stack_init                       0x08003618   Section        0  cpuport.o(i.rt_hw_stack_init)
    i.rt_interrupt_enter                     0x08003664   Section        0  irq.o(i.rt_interrupt_enter)
    i.rt_interrupt_leave                     0x08003684   Section        0  irq.o(i.rt_interrupt_leave)
    i.rt_ipc_list_resume                     0x080036a4   Section        0  ipc.o(i.rt_ipc_list_resume)
    rt_ipc_list_resume                       0x080036a5   Thumb Code    20  ipc.o(i.rt_ipc_list_resume)
    i.rt_ipc_list_suspend                    0x080036b8   Section        0  ipc.o(i.rt_ipc_list_suspend)
    rt_ipc_list_suspend                      0x080036b9   Thumb Code   108  ipc.o(i.rt_ipc_list_suspend)
    i.rt_ipc_object_init                     0x08003724   Section        0  ipc.o(i.rt_ipc_object_init)
    rt_ipc_object_init                       0x08003725   Thumb Code    16  ipc.o(i.rt_ipc_object_init)
    i.rt_list_init                           0x08003734   Section        0  ipc.o(i.rt_list_init)
    rt_list_init                             0x08003735   Thumb Code     6  ipc.o(i.rt_list_init)
    i.rt_list_init                           0x0800373a   Section        0  scheduler.o(i.rt_list_init)
    rt_list_init                             0x0800373b   Thumb Code     6  scheduler.o(i.rt_list_init)
    i.rt_list_init                           0x08003740   Section        0  timer.o(i.rt_list_init)
    rt_list_init                             0x08003741   Thumb Code     6  timer.o(i.rt_list_init)
    i.rt_list_insert_after                   0x08003746   Section        0  object.o(i.rt_list_insert_after)
    rt_list_insert_after                     0x08003747   Thumb Code    14  object.o(i.rt_list_insert_after)
    i.rt_list_insert_after                   0x08003754   Section        0  thread.o(i.rt_list_insert_after)
    rt_list_insert_after                     0x08003755   Thumb Code    14  thread.o(i.rt_list_insert_after)
    i.rt_list_insert_after                   0x08003762   Section        0  timer.o(i.rt_list_insert_after)
    rt_list_insert_after                     0x08003763   Thumb Code    14  timer.o(i.rt_list_insert_after)
    i.rt_list_insert_before                  0x08003770   Section        0  dataqueue.o(i.rt_list_insert_before)
    rt_list_insert_before                    0x08003771   Thumb Code    14  dataqueue.o(i.rt_list_insert_before)
    i.rt_list_insert_before                  0x0800377e   Section        0  ipc.o(i.rt_list_insert_before)
    rt_list_insert_before                    0x0800377f   Thumb Code    14  ipc.o(i.rt_list_insert_before)
    i.rt_list_isempty                        0x0800378c   Section        0  dataqueue.o(i.rt_list_isempty)
    rt_list_isempty                          0x0800378d   Thumb Code    16  dataqueue.o(i.rt_list_isempty)
    i.rt_list_isempty                        0x0800379c   Section        0  ipc.o(i.rt_list_isempty)
    rt_list_isempty                          0x0800379d   Thumb Code    16  ipc.o(i.rt_list_isempty)
    i.rt_list_isempty                        0x080037ac   Section        0  timer.o(i.rt_list_isempty)
    rt_list_isempty                          0x080037ad   Thumb Code    16  timer.o(i.rt_list_isempty)
    i.rt_list_remove                         0x080037bc   Section        0  object.o(i.rt_list_remove)
    rt_list_remove                           0x080037bd   Thumb Code    18  object.o(i.rt_list_remove)
    i.rt_list_remove                         0x080037ce   Section        0  thread.o(i.rt_list_remove)
    rt_list_remove                           0x080037cf   Thumb Code    18  thread.o(i.rt_list_remove)
    i.rt_malloc                              0x080037e0   Section        0  mem.o(i.rt_malloc)
    i.rt_memset                              0x0800394c   Section        0  kservice.o(i.rt_memset)
    i.rt_object_allocate                     0x08003994   Section        0  object.o(i.rt_object_allocate)
    i.rt_object_delete                       0x080039de   Section        0  object.o(i.rt_object_delete)
    i.rt_object_detach                       0x080039fe   Section        0  object.o(i.rt_object_detach)
    i.rt_object_get_information              0x08003a18   Section        0  object.o(i.rt_object_get_information)
    i.rt_object_init                         0x08003a40   Section        0  object.o(i.rt_object_init)
    i.rt_object_is_systemobject              0x08003a7c   Section        0  object.o(i.rt_object_is_systemobject)
    i.rt_schedule                            0x08003a90   Section        0  scheduler.o(i.rt_schedule)
    i.rt_schedule_insert_thread              0x08003b20   Section        0  scheduler.o(i.rt_schedule_insert_thread)
    i.rt_schedule_remove_thread              0x08003b70   Section        0  scheduler.o(i.rt_schedule_remove_thread)
    i.rt_sem_init                            0x08003bc4   Section        0  ipc.o(i.rt_sem_init)
    i.rt_sem_release                         0x08003bea   Section        0  ipc.o(i.rt_sem_release)
    i.rt_sem_take                            0x08003c24   Section        0  ipc.o(i.rt_sem_take)
    i.rt_show_version                        0x08003c98   Section        0  kservice.o(i.rt_show_version)
    i.rt_strncpy                             0x08003c9a   Section        0  kservice.o(i.rt_strncpy)
    i.rt_system_heap_init                    0x08003cd0   Section        0  mem.o(i.rt_system_heap_init)
    i.rt_system_scheduler_init               0x08003d80   Section        0  scheduler.o(i.rt_system_scheduler_init)
    i.rt_system_scheduler_start              0x08003dcc   Section        0  scheduler.o(i.rt_system_scheduler_start)
    i.rt_system_timer_init                   0x08003dfc   Section        0  timer.o(i.rt_system_timer_init)
    i.rt_system_timer_thread_init            0x08003e18   Section        0  timer.o(i.rt_system_timer_thread_init)
    i.rt_thread_create                       0x08003e1a   Section        0  thread.o(i.rt_thread_create)
    i.rt_thread_delay                        0x08003e6a   Section        0  thread.o(i.rt_thread_delay)
    i.rt_thread_exit                         0x08003e78   Section        0  thread.o(i.rt_thread_exit)
    i.rt_thread_idle_entry                   0x08003ecc   Section        0  idle.o(i.rt_thread_idle_entry)
    rt_thread_idle_entry                     0x08003ecd   Thumb Code     8  idle.o(i.rt_thread_idle_entry)
    i.rt_thread_idle_excute                  0x08003ed4   Section        0  idle.o(i.rt_thread_idle_excute)
    i.rt_thread_idle_init                    0x08003f58   Section        0  idle.o(i.rt_thread_idle_init)
    i.rt_thread_init                         0x08003f94   Section        0  thread.o(i.rt_thread_init)
    i.rt_thread_resume                       0x08003fc8   Section        0  thread.o(i.rt_thread_resume)
    i.rt_thread_self                         0x08004004   Section        0  thread.o(i.rt_thread_self)
    i.rt_thread_sleep                        0x08004010   Section        0  thread.o(i.rt_thread_sleep)
    i.rt_thread_startup                      0x08004054   Section        0  thread.o(i.rt_thread_startup)
    i.rt_thread_suspend                      0x08004080   Section        0  thread.o(i.rt_thread_suspend)
    i.rt_thread_timeout                      0x080040c4   Section        0  thread.o(i.rt_thread_timeout)
    i.rt_thread_yield                        0x080040e4   Section        0  thread.o(i.rt_thread_yield)
    i.rt_tick_get                            0x08004148   Section        0  clock.o(i.rt_tick_get)
    i.rt_tick_increase                       0x08004154   Section        0  clock.o(i.rt_tick_increase)
    i.rt_timer_check                         0x08004184   Section        0  timer.o(i.rt_timer_check)
    i.rt_timer_control                       0x08004200   Section        0  timer.o(i.rt_timer_control)
    i.rt_timer_detach                        0x08004238   Section        0  timer.o(i.rt_timer_detach)
    i.rt_timer_init                          0x08004258   Section        0  timer.o(i.rt_timer_init)
    i.rt_timer_start                         0x08004288   Section        0  timer.o(i.rt_timer_start)
    i.rt_timer_stop                          0x08004380   Section        0  timer.o(i.rt_timer_stop)
    i.rti_board_end                          0x080043b0   Section        0  components.o(i.rti_board_end)
    rti_board_end                            0x080043b1   Thumb Code     4  components.o(i.rti_board_end)
    i.rti_board_start                        0x080043b4   Section        0  components.o(i.rti_board_start)
    rti_board_start                          0x080043b5   Thumb Code     4  components.o(i.rti_board_start)
    i.rti_end                                0x080043b8   Section        0  components.o(i.rti_end)
    rti_end                                  0x080043b9   Thumb Code     4  components.o(i.rti_end)
    i.rti_start                              0x080043bc   Section        0  components.o(i.rti_start)
    rti_start                                0x080043bd   Thumb Code     4  components.o(i.rti_start)
    i.rtthread_startup                       0x080043c0   Section        0  components.o(i.rtthread_startup)
    i.sEE_TIMEOUT_UserCallback               0x080043ea   Section        0  see_i2c.o(i.sEE_TIMEOUT_UserCallback)
    i.sEE_WaitEepromStandbyState             0x080043f0   Section        0  see_i2c.o(i.sEE_WaitEepromStandbyState)
    i.save_config                            0x080044e0   Section        0  config_utils.o(i.save_config)
    i.start_mode                             0x08004528   Section        0  main.o(i.start_mode)
    i.stm32_getc                             0x08004628   Section        0  usart.o(i.stm32_getc)
    stm32_getc                               0x08004629   Thumb Code    26  usart.o(i.stm32_getc)
    i.tick_ms_init                           0x08004642   Section        0  time_utils.o(i.tick_ms_init)
    i.uart_isr                               0x08004650   Section        0  usart.o(i.uart_isr)
    uart_isr                                 0x08004651   Thumb Code   134  usart.o(i.uart_isr)
    i.udp_msgSend                            0x080046d8   Section        0  main.o(i.udp_msgSend)
    i.usart_init                             0x080047d8   Section        0  usart_utils.o(i.usart_init)
    i.usart_read                             0x0800486e   Section        0  usart_utils.o(i.usart_read)
    i.usart_write                            0x080048d0   Section        0  usart_utils.o(i.usart_write)
    i.wait_OK                                0x08004904   Section        0  main.o(i.wait_OK)
    locale$$code                             0x08004948   Section       44  lc_ctype_c.o(locale$$code)
    .constdata                               0x08004974   Section       13  main.o(.constdata)
    l_default_nbMCFG                         0x08004974   Data          13  main.o(.constdata)
    .constdata                               0x08004981   Section      290  kservice.o(.constdata)
    small_digits                             0x08004a81   Data          17  kservice.o(.constdata)
    large_digits                             0x08004a92   Data          17  kservice.o(.constdata)
    .constdata                               0x08004aa3   Section       40  _printf_hex_int.o(.constdata)
    uc_hextab                                0x08004aa3   Data          20  _printf_hex_int.o(.constdata)
    lc_hextab                                0x08004ab7   Data          20  _printf_hex_int.o(.constdata)
    .constdata                               0x08004acb   Section       17  __printf_flags_wp.o(.constdata)
    maptable                                 0x08004acb   Data          17  __printf_flags_wp.o(.constdata)
    .conststring                             0x08004adc   Section       58  main.o(.conststring)
    .rti_fn.0                                0x08004b18   Section        4  components.o(.rti_fn.0)
    __tagsym$$used                           0x08004b18   Number         0  components.o(.rti_fn.0)
    .rti_fn.0.end                            0x08004b1c   Section        4  components.o(.rti_fn.0.end)
    __tagsym$$used                           0x08004b1c   Number         0  components.o(.rti_fn.0.end)
    .rti_fn.1.end                            0x08004b20   Section        4  components.o(.rti_fn.1.end)
    __tagsym$$used                           0x08004b20   Number         0  components.o(.rti_fn.1.end)
    .rti_fn.6.end                            0x08004b24   Section        4  components.o(.rti_fn.6.end)
    __tagsym$$used                           0x08004b24   Number         0  components.o(.rti_fn.6.end)
    locale$$data                             0x08004b48   Section      272  lc_ctype_c.o(locale$$data)
    __lcctype_c_name                         0x08004b4c   Data           2  lc_ctype_c.o(locale$$data)
    __lcctype_c_start                        0x08004b54   Data           0  lc_ctype_c.o(locale$$data)
    __lcctype_c_end                          0x08004c58   Data           0  lc_ctype_c.o(locale$$data)
    .data                                    0x20000000   Section       56  main.o(.data)
    l_cnt                                    0x20000000   Data           4  main.o(.data)
    l_nband                                  0x20000004   Data           4  main.o(.data)
    .data                                    0x20000038   Section        8  see_i2c.o(.data)
    .data                                    0x20000040   Section        8  time_utils.o(.data)
    l_timestamp                              0x20000040   Data           8  time_utils.o(.data)
    .data                                    0x20000048   Section       20  system_stm32f10x.o(.data)
    .data                                    0x2000005c   Section       20  stm32f10x_rcc.o(.data)
    APBAHBPrescTable                         0x2000005c   Data          16  stm32f10x_rcc.o(.data)
    ADCPrescTable                            0x2000006c   Data           4  stm32f10x_rcc.o(.data)
    .data                                    0x20000070   Section       16  cpuport.o(.data)
    rt_exception_hook                        0x2000007c   Data           4  cpuport.o(.data)
    .data                                    0x20000080   Section        4  clock.o(.data)
    rt_tick                                  0x20000080   Data           4  clock.o(.data)
    .data                                    0x20000084   Section        1  irq.o(.data)
    .data                                    0x20000088   Section       24  mem.o(.data)
    heap_ptr                                 0x20000088   Data           4  mem.o(.data)
    heap_end                                 0x2000008c   Data           4  mem.o(.data)
    lfree                                    0x20000090   Data           4  mem.o(.data)
    mem_size_aligned                         0x20000094   Data           4  mem.o(.data)
    used_mem                                 0x20000098   Data           4  mem.o(.data)
    max_mem                                  0x2000009c   Data           4  mem.o(.data)
    .data                                    0x200000a0   Section       96  object.o(.data)
    rt_object_container                      0x200000a0   Data          96  object.o(.data)
    .data                                    0x20000100   Section       24  scheduler.o(.data)
    rt_scheduler_lock_nest                   0x20000100   Data           2  scheduler.o(.data)
    .data                                    0x20000118   Section       12  timer.o(.data)
    rt_timer_list                            0x20000118   Data           8  timer.o(.data)
    random_nr                                0x20000120   Data           4  timer.o(.data)
    .bss                                     0x20000124   Section     3228  main.o(.bss)
    l_uartBuf                                0x20000124   Data        1024  main.o(.bss)
    l_sendBuf                                0x20000524   Data        2048  main.o(.bss)
    l_nbModuConfig                           0x20000d24   Data          13  main.o(.bss)
    l_IMEI                                   0x20000d31   Data          15  main.o(.bss)
    buf                                      0x20000d40   Data         128  main.o(.bss)
    .bss                                     0x20000dc0   Section     1024  crc32.o(.bss)
    crc_tab32                                0x20000dc0   Data        1024  crc32.o(.bss)
    .bss                                     0x200011c0   Section      168  usart.o(.bss)
    .bss                                     0x20001268   Section     4096  board.o(.bss)
    rt_heap                                  0x20001268   Data        4096  board.o(.bss)
    .bss                                     0x20002268   Section      376  idle.o(.bss)
    idle                                     0x20002268   Data         120  idle.o(.bss)
    rt_thread_stack                          0x200022e0   Data         256  idle.o(.bss)
    .bss                                     0x200023e0   Section       32  mem.o(.bss)
    heap_sem                                 0x200023e0   Data          32  mem.o(.bss)
    .bss                                     0x20002400   Section       64  scheduler.o(.bss)
    .bss                                     0x20002440   Section       96  libspace.o(.bss)
    HEAP                                     0x200024a0   Section      512  startup_stm32f10x_md.o(HEAP)
    Heap_Mem                                 0x200024a0   Data         512  startup_stm32f10x_md.o(HEAP)
    STACK                                    0x200026a0   Section     1024  startup_stm32f10x_md.o(STACK)
    Stack_Mem                                0x200026a0   Data        1024  startup_stm32f10x_md.o(STACK)
    __initial_sp                             0x20002aa0   Data           0  startup_stm32f10x_md.o(STACK)

    Global Symbols

    Symbol Name                              Value     Ov Type        Size  Object(Section)

    BuildAttributes$$THM_ISAv4$P$D$K$B$S$PE$A:L22UL41UL21$X:L11$S22US41US21$IEEE1$IW$USESV6$~STKCKD$USESV7$~SHL$OSPACE$ROPI$EBA8$UX$STANDARDLIB$REQ8$PRES8$EABIv2 0x00000000   Number         0  anon$$obj.o ABSOLUTE
    __ARM_use_no_argv                        0x00000000   Number         0  main.o ABSOLUTE
    _printf_flags                            0x00000000   Number         0  printf_stubs.o ABSOLUTE
    _printf_return_value                     0x00000000   Number         0  printf_stubs.o ABSOLUTE
    _printf_sizespec                         0x00000000   Number         0  printf_stubs.o ABSOLUTE
    _printf_widthprec                        0x00000000   Number         0  printf_stubs.o ABSOLUTE
    __ARM_exceptions_init                     - Undefined Weak Reference
    __alloca_initialize                       - Undefined Weak Reference
    __arm_preinit_                            - Undefined Weak Reference
    __cpp_initialize__aeabi_                  - Undefined Weak Reference
    __cxa_finalize                            - Undefined Weak Reference
    __sigvec_lookup                           - Undefined Weak Reference
    _atexit_init                              - Undefined Weak Reference
    _call_atexit_fns                          - Undefined Weak Reference
    _clock_init                               - Undefined Weak Reference
    _fp_trap_init                             - Undefined Weak Reference
    _fp_trap_shutdown                         - Undefined Weak Reference
    _get_lc_collate                           - Undefined Weak Reference
    _get_lc_monetary                          - Undefined Weak Reference
    _get_lc_numeric                           - Undefined Weak Reference
    _get_lc_time                              - Undefined Weak Reference
    _getenv_init                              - Undefined Weak Reference
    _handle_redirection                       - Undefined Weak Reference
    _init_alloc                               - Undefined Weak Reference
    _init_user_alloc                          - Undefined Weak Reference
    _initio                                   - Undefined Weak Reference
    _printf_mbtowc                            - Undefined Weak Reference
    _printf_truncate_signed                   - Undefined Weak Reference
    _printf_truncate_unsigned                 - Undefined Weak Reference
    _rand_init                                - Undefined Weak Reference
    _scanf_longlong                           - Undefined Weak Reference
    _scanf_mbtowc                             - Undefined Weak Reference
    _scanf_real                               - Undefined Weak Reference
    _scanf_string                             - Undefined Weak Reference
    _scanf_wctomb                             - Undefined Weak Reference
    _scanf_wstring                            - Undefined Weak Reference
    _signal_finish                            - Undefined Weak Reference
    _signal_init                              - Undefined Weak Reference
    _terminate_alloc                          - Undefined Weak Reference
    _terminate_user_alloc                     - Undefined Weak Reference
    _terminateio                              - Undefined Weak Reference
    __Vectors_Size                           0x000000ec   Number         0  startup_stm32f10x_md.o ABSOLUTE
    __Vectors                                0x08000000   Data           4  startup_stm32f10x_md.o(RESET)
    __Vectors_End                            0x080000ec   Data           0  startup_stm32f10x_md.o(RESET)
    __main                                   0x080000ed   Thumb Code     8  __main.o(!!!main)
    __scatterload                            0x080000f5   Thumb Code     0  __scatter.o(!!!scatter)
    __scatterload_rt2                        0x080000f5   Thumb Code    44  __scatter.o(!!!scatter)
    __scatterload_rt2_thumb_only             0x080000f5   Thumb Code     0  __scatter.o(!!!scatter)
    __scatterload_null                       0x08000103   Thumb Code     0  __scatter.o(!!!scatter)
    __scatterload_copy                       0x08000129   Thumb Code    26  __scatter_copy.o(!!handler_copy)
    __scatterload_zeroinit                   0x08000145   Thumb Code    28  __scatter_zi.o(!!handler_zi)
    _printf_d                                0x08000161   Thumb Code     0  _printf_d.o(.ARM.Collect$$_printf_percent$$00000009)
    _printf_percent                          0x08000161   Thumb Code     0  _printf_percent.o(.ARM.Collect$$_printf_percent$$00000000)
    _printf_x                                0x08000167   Thumb Code     0  _printf_x.o(.ARM.Collect$$_printf_percent$$0000000C)
    _printf_s                                0x0800016d   Thumb Code     0  _printf_s.o(.ARM.Collect$$_printf_percent$$00000014)
    _printf_percent_end                      0x08000173   Thumb Code     0  _printf_percent_end.o(.ARM.Collect$$_printf_percent$$00000017)
    __rt_lib_init                            0x08000177   Thumb Code     0  libinit.o(.ARM.Collect$$libinit$$00000000)
    __rt_lib_init_fp_1                       0x08000179   Thumb Code     0  libinit2.o(.ARM.Collect$$libinit$$00000002)
    __rt_lib_init_heap_1                     0x08000179   Thumb Code     0  libinit2.o(.ARM.Collect$$libinit$$0000000A)
    __rt_lib_init_lc_common                  0x08000179   Thumb Code     0  libinit2.o(.ARM.Collect$$libinit$$0000000F)
    __rt_lib_init_preinit_1                  0x08000179   Thumb Code     0  libinit2.o(.ARM.Collect$$libinit$$00000004)
    __rt_lib_init_rand_1                     0x08000179   Thumb Code     0  libinit2.o(.ARM.Collect$$libinit$$0000000E)
    __rt_lib_init_user_alloc_1               0x08000179   Thumb Code     0  libinit2.o(.ARM.Collect$$libinit$$0000000C)
    __rt_lib_init_lc_collate_1               0x0800017f   Thumb Code     0  libinit2.o(.ARM.Collect$$libinit$$00000011)
    __rt_lib_init_lc_ctype_2                 0x0800017f   Thumb Code     0  libinit2.o(.ARM.Collect$$libinit$$00000012)
    __rt_lib_init_alloca_1                   0x0800018b   Thumb Code     0  libinit2.o(.ARM.Collect$$libinit$$0000002E)
    __rt_lib_init_argv_1                     0x0800018b   Thumb Code     0  libinit2.o(.ARM.Collect$$libinit$$0000002C)
    __rt_lib_init_atexit_1                   0x0800018b   Thumb Code     0  libinit2.o(.ARM.Collect$$libinit$$0000001B)
    __rt_lib_init_clock_1                    0x0800018b   Thumb Code     0  libinit2.o(.ARM.Collect$$libinit$$00000021)
    __rt_lib_init_cpp_1                      0x0800018b   Thumb Code     0  libinit2.o(.ARM.Collect$$libinit$$00000032)
    __rt_lib_init_exceptions_1               0x0800018b   Thumb Code     0  libinit2.o(.ARM.Collect$$libinit$$00000030)
    __rt_lib_init_fp_trap_1                  0x0800018b   Thumb Code     0  libinit2.o(.ARM.Collect$$libinit$$0000001F)
    __rt_lib_init_getenv_1                   0x0800018b   Thumb Code     0  libinit2.o(.ARM.Collect$$libinit$$00000023)
    __rt_lib_init_lc_ctype_1                 0x0800018b   Thumb Code     0  libinit2.o(.ARM.Collect$$libinit$$00000013)
    __rt_lib_init_lc_monetary_1              0x0800018b   Thumb Code     0  libinit2.o(.ARM.Collect$$libinit$$00000015)
    __rt_lib_init_lc_numeric_1               0x0800018b   Thumb Code     0  libinit2.o(.ARM.Collect$$libinit$$00000017)
    __rt_lib_init_lc_time_1                  0x0800018b   Thumb Code     0  libinit2.o(.ARM.Collect$$libinit$$00000019)
    __rt_lib_init_return                     0x0800018b   Thumb Code     0  libinit2.o(.ARM.Collect$$libinit$$00000033)
    __rt_lib_init_signal_1                   0x0800018b   Thumb Code     0  libinit2.o(.ARM.Collect$$libinit$$0000001D)
    __rt_lib_init_stdio_1                    0x0800018b   Thumb Code     0  libinit2.o(.ARM.Collect$$libinit$$00000025)
    __rt_lib_shutdown                        0x0800018d   Thumb Code     0  libshutdown.o(.ARM.Collect$$libshutdown$$00000000)
    __rt_lib_shutdown_cpp_1                  0x0800018f   Thumb Code     0  libshutdown2.o(.ARM.Collect$$libshutdown$$00000002)
    __rt_lib_shutdown_fp_trap_1              0x0800018f   Thumb Code     0  libshutdown2.o(.ARM.Collect$$libshutdown$$00000007)
    __rt_lib_shutdown_heap_1                 0x0800018f   Thumb Code     0  libshutdown2.o(.ARM.Collect$$libshutdown$$0000000F)
    __rt_lib_shutdown_return                 0x0800018f   Thumb Code     0  libshutdown2.o(.ARM.Collect$$libshutdown$$00000010)
    __rt_lib_shutdown_signal_1               0x0800018f   Thumb Code     0  libshutdown2.o(.ARM.Collect$$libshutdown$$0000000A)
    __rt_lib_shutdown_stdio_1                0x0800018f   Thumb Code     0  libshutdown2.o(.ARM.Collect$$libshutdown$$00000004)
    __rt_lib_shutdown_user_alloc_1           0x0800018f   Thumb Code     0  libshutdown2.o(.ARM.Collect$$libshutdown$$0000000C)
    __rt_entry                               0x08000191   Thumb Code     0  __rtentry.o(.ARM.Collect$$rtentry$$00000000)
    __rt_entry_presh_1                       0x08000191   Thumb Code     0  __rtentry2.o(.ARM.Collect$$rtentry$$00000002)
    __rt_entry_sh                            0x08000191   Thumb Code     0  __rtentry4.o(.ARM.Collect$$rtentry$$00000004)
    __rt_entry_li                            0x08000197   Thumb Code     0  __rtentry2.o(.ARM.Collect$$rtentry$$0000000A)
    __rt_entry_postsh_1                      0x08000197   Thumb Code     0  __rtentry2.o(.ARM.Collect$$rtentry$$00000009)
    __rt_entry_main                          0x0800019b   Thumb Code     0  __rtentry2.o(.ARM.Collect$$rtentry$$0000000D)
    __rt_entry_postli_1                      0x0800019b   Thumb Code     0  __rtentry2.o(.ARM.Collect$$rtentry$$0000000C)
    __rt_exit                                0x080001a3   Thumb Code     0  rtexit.o(.ARM.Collect$$rtexit$$00000000)
    __rt_exit_ls                             0x080001a5   Thumb Code     0  rtexit2.o(.ARM.Collect$$rtexit$$00000003)
    __rt_exit_prels_1                        0x080001a5   Thumb Code     0  rtexit2.o(.ARM.Collect$$rtexit$$00000002)
    __rt_exit_exit                           0x080001a9   Thumb Code     0  rtexit2.o(.ARM.Collect$$rtexit$$00000004)
    Reset_Handler                            0x080001b1   Thumb Code     8  startup_stm32f10x_md.o(.text)
    NMI_Handler                              0x080001b9   Thumb Code     2  startup_stm32f10x_md.o(.text)
    MemManage_Handler                        0x080001bd   Thumb Code     2  startup_stm32f10x_md.o(.text)
    BusFault_Handler                         0x080001bf   Thumb Code     2  startup_stm32f10x_md.o(.text)
    UsageFault_Handler                       0x080001c1   Thumb Code     2  startup_stm32f10x_md.o(.text)
    SVC_Handler                              0x080001c3   Thumb Code     2  startup_stm32f10x_md.o(.text)
    DebugMon_Handler                         0x080001c5   Thumb Code     2  startup_stm32f10x_md.o(.text)
    ADC1_2_IRQHandler                        0x080001cb   Thumb Code     0  startup_stm32f10x_md.o(.text)
    CAN1_RX1_IRQHandler                      0x080001cb   Thumb Code     0  startup_stm32f10x_md.o(.text)
    CAN1_SCE_IRQHandler                      0x080001cb   Thumb Code     0  startup_stm32f10x_md.o(.text)
    DMA1_Channel1_IRQHandler                 0x080001cb   Thumb Code     0  startup_stm32f10x_md.o(.text)
    DMA1_Channel2_IRQHandler                 0x080001cb   Thumb Code     0  startup_stm32f10x_md.o(.text)
    DMA1_Channel4_IRQHandler                 0x080001cb   Thumb Code     0  startup_stm32f10x_md.o(.text)
    DMA1_Channel6_IRQHandler                 0x080001cb   Thumb Code     0  startup_stm32f10x_md.o(.text)
    DMA1_Channel7_IRQHandler                 0x080001cb   Thumb Code     0  startup_stm32f10x_md.o(.text)
    EXTI0_IRQHandler                         0x080001cb   Thumb Code     0  startup_stm32f10x_md.o(.text)
    EXTI1_IRQHandler                         0x080001cb   Thumb Code     0  startup_stm32f10x_md.o(.text)
    EXTI2_IRQHandler                         0x080001cb   Thumb Code     0  startup_stm32f10x_md.o(.text)
    EXTI3_IRQHandler                         0x080001cb   Thumb Code     0  startup_stm32f10x_md.o(.text)
    EXTI4_IRQHandler                         0x080001cb   Thumb Code     0  startup_stm32f10x_md.o(.text)
    EXTI9_5_IRQHandler                       0x080001cb   Thumb Code     0  startup_stm32f10x_md.o(.text)
    FLASH_IRQHandler                         0x080001cb   Thumb Code     0  startup_stm32f10x_md.o(.text)
    I2C1_ER_IRQHandler                       0x080001cb   Thumb Code     0  startup_stm32f10x_md.o(.text)
    I2C1_EV_IRQHandler                       0x080001cb   Thumb Code     0  startup_stm32f10x_md.o(.text)
    I2C2_ER_IRQHandler                       0x080001cb   Thumb Code     0  startup_stm32f10x_md.o(.text)
    I2C2_EV_IRQHandler                       0x080001cb   Thumb Code     0  startup_stm32f10x_md.o(.text)
    PVD_IRQHandler                           0x080001cb   Thumb Code     0  startup_stm32f10x_md.o(.text)
    RCC_IRQHandler                           0x080001cb   Thumb Code     0  startup_stm32f10x_md.o(.text)
    RTCAlarm_IRQHandler                      0x080001cb   Thumb Code     0  startup_stm32f10x_md.o(.text)
    RTC_IRQHandler                           0x080001cb   Thumb Code     0  startup_stm32f10x_md.o(.text)
    SPI1_IRQHandler                          0x080001cb   Thumb Code     0  startup_stm32f10x_md.o(.text)
    SPI2_IRQHandler                          0x080001cb   Thumb Code     0  startup_stm32f10x_md.o(.text)
    TAMPER_IRQHandler                        0x080001cb   Thumb Code     0  startup_stm32f10x_md.o(.text)
    TIM1_BRK_IRQHandler                      0x080001cb   Thumb Code     0  startup_stm32f10x_md.o(.text)
    TIM1_CC_IRQHandler                       0x080001cb   Thumb Code     0  startup_stm32f10x_md.o(.text)
    TIM1_TRG_COM_IRQHandler                  0x080001cb   Thumb Code     0  startup_stm32f10x_md.o(.text)
    TIM1_UP_IRQHandler                       0x080001cb   Thumb Code     0  startup_stm32f10x_md.o(.text)
    TIM2_IRQHandler                          0x080001cb   Thumb Code     0  startup_stm32f10x_md.o(.text)
    TIM4_IRQHandler                          0x080001cb   Thumb Code     0  startup_stm32f10x_md.o(.text)
    USART2_IRQHandler                        0x080001cb   Thumb Code     0  startup_stm32f10x_md.o(.text)
    USBWakeUp_IRQHandler                     0x080001cb   Thumb Code     0  startup_stm32f10x_md.o(.text)
    USB_HP_CAN1_TX_IRQHandler                0x080001cb   Thumb Code     0  startup_stm32f10x_md.o(.text)
    USB_LP_CAN1_RX0_IRQHandler               0x080001cb   Thumb Code     0  startup_stm32f10x_md.o(.text)
    WWDG_IRQHandler                          0x080001cb   Thumb Code     0  startup_stm32f10x_md.o(.text)
    __user_initial_stackheap                 0x080001cd   Thumb Code     0  startup_stm32f10x_md.o(.text)
    rt_hw_interrupt_disable                  0x080001f1   Thumb Code     8  context_rvds.o(.text)
    rt_hw_interrupt_enable                   0x080001f9   Thumb Code     6  context_rvds.o(.text)
    rt_hw_context_switch                     0x080001ff   Thumb Code    32  context_rvds.o(.text)
    rt_hw_context_switch_interrupt           0x080001ff   Thumb Code     0  context_rvds.o(.text)
    PendSV_Handler                           0x0800021f   Thumb Code    60  context_rvds.o(.text)
    rt_hw_context_switch_to                  0x0800025b   Thumb Code    58  context_rvds.o(.text)
    rt_hw_interrupt_thread_switch            0x08000295   Thumb Code     2  context_rvds.o(.text)
    HardFault_Handler                        0x08000297   Thumb Code    48  context_rvds.o(.text)
    __2snprintf                              0x080002e1   Thumb Code    50  __2snprintf.o(.text)
    _printf_pre_padding                      0x08000319   Thumb Code    44  _printf_pad.o(.text)
    _printf_post_padding                     0x08000345   Thumb Code    34  _printf_pad.o(.text)
    _printf_str                              0x08000367   Thumb Code    82  _printf_str.o(.text)
    _printf_int_dec                          0x080003b9   Thumb Code   104  _printf_dec.o(.text)
    _printf_int_hex                          0x08000431   Thumb Code    84  _printf_hex_int.o(.text)
    _printf_longlong_hex                     0x08000431   Thumb Code     0  _printf_hex_int.o(.text)
    __printf                                 0x08000489   Thumb Code   308  __printf_flags_wp.o(.text)
    __0sscanf                                0x080005c1   Thumb Code    52  __0sscanf.o(.text)
    _scanf_int                               0x080005fd   Thumb Code   332  _scanf_int.o(.text)
    memcmp                                   0x08000749   Thumb Code    88  memcmp.o(.text)
    strlen                                   0x080007a1   Thumb Code    62  strlen.o(.text)
    memchr                                   0x080007df   Thumb Code    20  memchr.o(.text)
    __aeabi_memcpy                           0x080007f3   Thumb Code     0  rt_memcpy_v6.o(.text)
    __rt_memcpy                              0x080007f3   Thumb Code   138  rt_memcpy_v6.o(.text)
    _memcpy_lastbytes                        0x08000859   Thumb Code     0  rt_memcpy_v6.o(.text)
    __aeabi_memclr                           0x0800087d   Thumb Code     0  rt_memclr.o(.text)
    __rt_memclr                              0x0800087d   Thumb Code    68  rt_memclr.o(.text)
    _memset                                  0x08000881   Thumb Code     0  rt_memclr.o(.text)
    __aeabi_memclr4                          0x080008c1   Thumb Code     0  rt_memclr_w.o(.text)
    __aeabi_memclr8                          0x080008c1   Thumb Code     0  rt_memclr_w.o(.text)
    __rt_memclr_w                            0x080008c1   Thumb Code    78  rt_memclr_w.o(.text)
    _memset_w                                0x080008c5   Thumb Code     0  rt_memclr_w.o(.text)
    strcmp                                   0x08000911   Thumb Code   128  strcmpv7m.o(.text)
    __use_two_region_memory                  0x08000991   Thumb Code     2  heapauxi.o(.text)
    __rt_heap_escrow$2region                 0x08000993   Thumb Code     2  heapauxi.o(.text)
    __rt_heap_expand$2region                 0x08000995   Thumb Code     2  heapauxi.o(.text)
    _printf_int_common                       0x08000997   Thumb Code   178  _printf_intcommon.o(.text)
    _printf_char_common                      0x08000a53   Thumb Code    32  _printf_char_common.o(.text)
    _sputc                                   0x08000a79   Thumb Code    10  _sputc.o(.text)
    _snputc                                  0x08000a83   Thumb Code    16  _snputc.o(.text)
    _printf_cs_common                        0x08000a93   Thumb Code    20  _printf_char.o(.text)
    _printf_char                             0x08000aa7   Thumb Code    16  _printf_char.o(.text)
    _printf_string                           0x08000ab7   Thumb Code     8  _printf_char.o(.text)
    _chval                                   0x08000abf   Thumb Code    28  _chval.o(.text)
    __vfscanf_char                           0x08000ae9   Thumb Code    24  scanf_char.o(.text)
    _sgetc                                   0x08000b09   Thumb Code    30  _sgetc.o(.text)
    _sbackspace                              0x08000b27   Thumb Code    34  _sgetc.o(.text)
    __aeabi_memcpy4                          0x08000b49   Thumb Code     0  rt_memcpy_w.o(.text)
    __aeabi_memcpy8                          0x08000b49   Thumb Code     0  rt_memcpy_w.o(.text)
    __rt_memcpy_w                            0x08000b49   Thumb Code   100  rt_memcpy_w.o(.text)
    _memcpy_lastbytes_aligned                0x08000b91   Thumb Code     0  rt_memcpy_w.o(.text)
    isspace                                  0x08000bad   Thumb Code    18  isspace.o(.text)
    __vfscanf                                0x08000bc1   Thumb Code   878  _scanf.o(.text)
    __user_setup_stackheap                   0x08000f35   Thumb Code    74  sys_stackheap_outer.o(.text)
    __rt_ctype_table                         0x08000f81   Thumb Code    16  rt_ctype_table.o(.text)
    exit                                     0x08000f91   Thumb Code    18  exit.o(.text)
    __user_libspace                          0x08000fa5   Thumb Code     8  libspace.o(.text)
    __user_perproc_libspace                  0x08000fa5   Thumb Code     0  libspace.o(.text)
    __user_perthread_libspace                0x08000fa5   Thumb Code     0  libspace.o(.text)
    __rt_locale                              0x08000fad   Thumb Code     8  rt_locale_intlibspace.o(.text)
    _sys_exit                                0x08000fb5   Thumb Code     8  sys_exit.o(.text)
    __I$use$semihosting                      0x08000fc1   Thumb Code     0  use_no_semi.o(.text)
    __use_no_semihosting_swi                 0x08000fc1   Thumb Code     2  use_no_semi.o(.text)
    __semihosting_library_function           0x08000fc3   Thumb Code     0  indicate_semi.o(.text)
    main                                     0x08000fc3   Thumb Code    14  components.o(i.$Sub$$main)
    ATCMD_waitOK                             0x08000fd1   Thumb Code    68  main.o(i.ATCMD_waitOK)
    DMA1_Channel3_IRQHandler                 0x080014a1   Thumb Code    18  usart.o(i.DMA1_Channel3_IRQHandler)
    DMA1_Channel5_IRQHandler                 0x080014b9   Thumb Code    18  usart.o(i.DMA1_Channel5_IRQHandler)
    DMA_ClearFlag                            0x080014d1   Thumb Code    18  stm32f10x_dma.o(i.DMA_ClearFlag)
    DMA_GetCurrDataCounter                   0x080014ed   Thumb Code     8  stm32f10x_dma.o(i.DMA_GetCurrDataCounter)
    EXTI15_10_IRQHandler                     0x080014f5   Thumb Code    80  main.o(i.EXTI15_10_IRQHandler)
    EXTI_ClearITPendingBit                   0x0800154d   Thumb Code     6  stm32f10x_exti.o(i.EXTI_ClearITPendingBit)
    EXTI_GetITStatus                         0x08001559   Thumb Code    34  stm32f10x_exti.o(i.EXTI_GetITStatus)
    EXTI_Init                                0x08001581   Thumb Code   142  stm32f10x_exti.o(i.EXTI_Init)
    GPIO_Configuration                       0x08001615   Thumb Code   214  main.o(i.GPIO_Configuration)
    GPIO_EXTILineConfig                      0x080016f5   Thumb Code    60  stm32f10x_gpio.o(i.GPIO_EXTILineConfig)
    GPIO_Init                                0x08001735   Thumb Code   278  stm32f10x_gpio.o(i.GPIO_Init)
    GPIO_ResetBits                           0x0800184b   Thumb Code     4  stm32f10x_gpio.o(i.GPIO_ResetBits)
    GPIO_SetBits                             0x0800184f   Thumb Code     4  stm32f10x_gpio.o(i.GPIO_SetBits)
    I2C_AcknowledgeConfig                    0x08001853   Thumb Code    24  stm32f10x_i2c.o(i.I2C_AcknowledgeConfig)
    I2C_CheckEvent                           0x0800186b   Thumb Code    42  stm32f10x_i2c.o(i.I2C_CheckEvent)
    I2C_ClearFlag                            0x08001895   Thumb Code    12  stm32f10x_i2c.o(i.I2C_ClearFlag)
    I2C_Cmd                                  0x080018a1   Thumb Code    24  stm32f10x_i2c.o(i.I2C_Cmd)
    I2C_GenerateSTART                        0x080018b9   Thumb Code    24  stm32f10x_i2c.o(i.I2C_GenerateSTART)
    I2C_GenerateSTOP                         0x080018d1   Thumb Code    24  stm32f10x_i2c.o(i.I2C_GenerateSTOP)
    I2C_GetFlagStatus                        0x080018e9   Thumb Code    58  stm32f10x_i2c.o(i.I2C_GetFlagStatus)
    I2C_Init                                 0x08001925   Thumb Code   222  stm32f10x_i2c.o(i.I2C_Init)
    I2C_ReceiveData                          0x08001a11   Thumb Code     8  stm32f10x_i2c.o(i.I2C_ReceiveData)
    I2C_Send7bitAddress                      0x08001a19   Thumb Code    18  stm32f10x_i2c.o(i.I2C_Send7bitAddress)
    I2C_SendData                             0x08001a2b   Thumb Code     4  stm32f10x_i2c.o(i.I2C_SendData)
    IWDG_Feed                                0x08001a2f   Thumb Code     2  time_utils.o(i.IWDG_Feed)
    IWDG_Init                                0x08001a31   Thumb Code     2  time_utils.o(i.IWDG_Init)
    NVIC_Init                                0x08001a35   Thumb Code   100  misc.o(i.NVIC_Init)
    NVIC_PriorityGroupConfig                 0x08001aa5   Thumb Code    10  misc.o(i.NVIC_PriorityGroupConfig)
    RCC_APB1PeriphClockCmd                   0x08001ab9   Thumb Code    26  stm32f10x_rcc.o(i.RCC_APB1PeriphClockCmd)
    RCC_APB2PeriphClockCmd                   0x08001ad9   Thumb Code    26  stm32f10x_rcc.o(i.RCC_APB2PeriphClockCmd)
    RCC_Configuration                        0x08001af9   Thumb Code    24  main.o(i.RCC_Configuration)
    RCC_GetClocksFreq                        0x08001b11   Thumb Code   192  stm32f10x_rcc.o(i.RCC_GetClocksFreq)
    RST_Configuration                        0x08001be5   Thumb Code    72  main.o(i.RST_Configuration)
    SEE_i2c_init                             0x08001c2d   Thumb Code    62  see_i2c.o(i.SEE_i2c_init)
    SEE_i2c_read                             0x08001c79   Thumb Code   436  see_i2c.o(i.SEE_i2c_read)
    SEE_i2c_write                            0x08001e45   Thumb Code   280  see_i2c.o(i.SEE_i2c_write)
    SysTick_Handler                          0x08002059   Thumb Code    16  board.o(i.SysTick_Handler)
    SystemCoreClockUpdate                    0x08002069   Thumb Code   142  system_stm32f10x.o(i.SystemCoreClockUpdate)
    SystemInit                               0x0800210d   Thumb Code    78  system_stm32f10x.o(i.SystemInit)
    TIM3_IRQHandler                          0x0800216d   Thumb Code    40  time_utils.o(i.TIM3_IRQHandler)
    TIM3_Int_Init                            0x0800219d   Thumb Code    90  time_utils.o(i.TIM3_Int_Init)
    TIM_ClearITPendingBit                    0x080021fd   Thumb Code     6  stm32f10x_tim.o(i.TIM_ClearITPendingBit)
    TIM_Cmd                                  0x08002203   Thumb Code    24  stm32f10x_tim.o(i.TIM_Cmd)
    TIM_GetITStatus                          0x0800221b   Thumb Code    34  stm32f10x_tim.o(i.TIM_GetITStatus)
    TIM_ITConfig                             0x0800223d   Thumb Code    18  stm32f10x_tim.o(i.TIM_ITConfig)
    TIM_TimeBaseInit                         0x08002251   Thumb Code   122  stm32f10x_tim.o(i.TIM_TimeBaseInit)
    USART1_IRQHandler                        0x080022f5   Thumb Code    18  usart.o(i.USART1_IRQHandler)
    USART3_IRQHandler                        0x0800230d   Thumb Code    18  usart.o(i.USART3_IRQHandler)
    USART_ClearITPendingBit                  0x08002325   Thumb Code    30  stm32f10x_usart.o(i.USART_ClearITPendingBit)
    USART_Cmd                                0x08002343   Thumb Code    24  stm32f10x_usart.o(i.USART_Cmd)
    USART_GetFlagStatus                      0x0800235b   Thumb Code    26  stm32f10x_usart.o(i.USART_GetFlagStatus)
    USART_GetITStatus                        0x08002375   Thumb Code    84  stm32f10x_usart.o(i.USART_GetITStatus)
    USART_ITConfig                           0x080023c9   Thumb Code    74  stm32f10x_usart.o(i.USART_ITConfig)
    USART_Init                               0x08002415   Thumb Code   210  stm32f10x_usart.o(i.USART_Init)
    USART_ReceiveData                        0x080024ed   Thumb Code    10  stm32f10x_usart.o(i.USART_ReceiveData)
    USART_SendData                           0x080024f7   Thumb Code     8  stm32f10x_usart.o(i.USART_SendData)
    USERCOM_direct_BC95COM                   0x08002501   Thumb Code    90  main.o(i.USERCOM_direct_BC95COM)
    __rt_ffs                                 0x08002595   Thumb Code    70  kservice.o(i.__rt_ffs)
    _is_digit                                0x080025f5   Thumb Code    14  __printf_wp.o(i._is_digit)
    bc95_cfgBaudRate                         0x08002735   Thumb Code    92  main.o(i.bc95_cfgBaudRate)
    checkConfigIPORT                         0x080027b9   Thumb Code   100  utils.o(i.checkConfigIPORT)
    checkConfigRS232                         0x0800282d   Thumb Code   134  utils.o(i.checkConfigRS232)
    coap_msgSend                             0x080028c1   Thumb Code   130  main.o(i.coap_msgSend)
    config_bc95                              0x0800296d   Thumb Code   202  main.o(i.config_bc95)
    config_init                              0x08002ac9   Thumb Code     8  config_utils.o(i.config_init)
    delay_ms                                 0x08002ad1   Thumb Code    42  time_utils.o(i.delay_ms)
    get_IMEI                                 0x08002b75   Thumb Code    98  main.o(i.get_IMEI)
    get_NBAND                                0x08002bfd   Thumb Code   104  main.o(i.get_NBAND)
    get_crc32                                0x08002c85   Thumb Code    50  crc32.o(i.get_crc32)
    get_timestamp                            0x08002cbd   Thumb Code     8  time_utils.o(i.get_timestamp)
    ghConfig                                 0x08002cc9   Thumb Code   262  main.o(i.ghConfig)
    load_config                              0x08002e35   Thumb Code    28  main.o(i.load_config)
    $Super$$main                             0x08002e59   Thumb Code    42  main.o(i.main)
    main_entry                               0x08002e91   Thumb Code   252  main.o(i.main_entry)
    main_thread_entry                        0x08002fa9   Thumb Code    14  components.o(i.main_thread_entry)
    memmem                                   0x08002fb7   Thumb Code    96  utils.o(i.memmem)
    read_config                              0x08003091   Thumb Code    84  config_utils.o(i.read_config)
    rt_application_init                      0x080030e5   Thumb Code    32  components.o(i.rt_application_init)
    rt_completion_done                       0x08003111   Thumb Code    72  completion.o(i.rt_completion_done)
    rt_components_board_init                 0x08003159   Thumb Code    20  components.o(i.rt_components_board_init)
    rt_components_init                       0x08003175   Thumb Code    20  components.o(i.rt_components_init)
    rt_data_queue_peak                       0x08003191   Thumb Code    90  dataqueue.o(i.rt_data_queue_peak)
    rt_data_queue_pop                        0x080031eb   Thumb Code   262  dataqueue.o(i.rt_data_queue_pop)
    rt_enter_critical                        0x08003389   Thumb Code    28  scheduler.o(i.rt_enter_critical)
    rt_exit_critical                         0x080033a9   Thumb Code    54  scheduler.o(i.rt_exit_critical)
    rt_free                                  0x080033e5   Thumb Code    98  mem.o(i.rt_free)
    rt_heap_begin_get                        0x0800345d   Thumb Code     4  board.o(i.rt_heap_begin_get)
    rt_heap_end_get                          0x08003465   Thumb Code     4  board.o(i.rt_heap_end_get)
    rt_hw_board_init                         0x0800346d   Thumb Code    48  board.o(i.rt_hw_board_init)
    rt_hw_hard_fault_exception               0x080034a1   Thumb Code    32  cpuport.o(i.rt_hw_hard_fault_exception)
    rt_hw_serial_isr                         0x080034c5   Thumb Code   340  serial.o(i.rt_hw_serial_isr)
    rt_hw_stack_init                         0x08003619   Thumb Code    70  cpuport.o(i.rt_hw_stack_init)
    rt_interrupt_enter                       0x08003665   Thumb Code    26  irq.o(i.rt_interrupt_enter)
    rt_interrupt_leave                       0x08003685   Thumb Code    26  irq.o(i.rt_interrupt_leave)
    rt_malloc                                0x080037e1   Thumb Code   336  mem.o(i.rt_malloc)
    rt_memset                                0x0800394d   Thumb Code    72  kservice.o(i.rt_memset)
    rt_object_allocate                       0x08003995   Thumb Code    74  object.o(i.rt_object_allocate)
    rt_object_delete                         0x080039df   Thumb Code    32  object.o(i.rt_object_delete)
    rt_object_detach                         0x080039ff   Thumb Code    26  object.o(i.rt_object_detach)
    rt_object_get_information                0x08003a19   Thumb Code    36  object.o(i.rt_object_get_information)
    rt_object_init                           0x08003a41   Thumb Code    60  object.o(i.rt_object_init)
    rt_object_is_systemobject                0x08003a7d   Thumb Code    18  object.o(i.rt_object_is_systemobject)
    rt_schedule                              0x08003a91   Thumb Code   118  scheduler.o(i.rt_schedule)
    rt_schedule_insert_thread                0x08003b21   Thumb Code    72  scheduler.o(i.rt_schedule_insert_thread)
    rt_schedule_remove_thread                0x08003b71   Thumb Code    76  scheduler.o(i.rt_schedule_remove_thread)
    rt_sem_init                              0x08003bc5   Thumb Code    38  ipc.o(i.rt_sem_init)
    rt_sem_release                           0x08003beb   Thumb Code    58  ipc.o(i.rt_sem_release)
    rt_sem_take                              0x08003c25   Thumb Code   116  ipc.o(i.rt_sem_take)
    rt_show_version                          0x08003c99   Thumb Code     2  kservice.o(i.rt_show_version)
    rt_strncpy                               0x08003c9b   Thumb Code    52  kservice.o(i.rt_strncpy)
    rt_system_heap_init                      0x08003cd1   Thumb Code   146  mem.o(i.rt_system_heap_init)
    rt_system_scheduler_init                 0x08003d81   Thumb Code    52  scheduler.o(i.rt_system_scheduler_init)
    rt_system_scheduler_start                0x08003dcd   Thumb Code    36  scheduler.o(i.rt_system_scheduler_start)
    rt_system_timer_init                     0x08003dfd   Thumb Code    24  timer.o(i.rt_system_timer_init)
    rt_system_timer_thread_init              0x08003e19   Thumb Code     2  timer.o(i.rt_system_timer_thread_init)
    rt_thread_create                         0x08003e1b   Thumb Code    80  thread.o(i.rt_thread_create)
    rt_thread_delay                          0x08003e6b   Thumb Code    12  thread.o(i.rt_thread_delay)
    rt_thread_exit                           0x08003e79   Thumb Code    76  thread.o(i.rt_thread_exit)
    rt_thread_idle_excute                    0x08003ed5   Thumb Code   128  idle.o(i.rt_thread_idle_excute)
    rt_thread_idle_init                      0x08003f59   Thumb Code    38  idle.o(i.rt_thread_idle_init)
    rt_thread_init                           0x08003f95   Thumb Code    52  thread.o(i.rt_thread_init)
    rt_thread_resume                         0x08003fc9   Thumb Code    60  thread.o(i.rt_thread_resume)
    rt_thread_self                           0x08004005   Thumb Code     6  thread.o(i.rt_thread_self)
    rt_thread_sleep                          0x08004011   Thumb Code    62  thread.o(i.rt_thread_sleep)
    rt_thread_startup                        0x08004055   Thumb Code    44  thread.o(i.rt_thread_startup)
    rt_thread_suspend                        0x08004081   Thumb Code    68  thread.o(i.rt_thread_suspend)
    rt_thread_timeout                        0x080040c5   Thumb Code    32  thread.o(i.rt_thread_timeout)
    rt_thread_yield                          0x080040e5   Thumb Code    92  thread.o(i.rt_thread_yield)
    rt_tick_get                              0x08004149   Thumb Code     6  clock.o(i.rt_tick_get)
    rt_tick_increase                         0x08004155   Thumb Code    42  clock.o(i.rt_tick_increase)
    rt_timer_check                           0x08004185   Thumb Code   118  timer.o(i.rt_timer_check)
    rt_timer_control                         0x08004201   Thumb Code    56  timer.o(i.rt_timer_control)
    rt_timer_detach                          0x08004239   Thumb Code    32  timer.o(i.rt_timer_detach)
    rt_timer_init                            0x08004259   Thumb Code    46  timer.o(i.rt_timer_init)
    rt_timer_start                           0x08004289   Thumb Code   238  timer.o(i.rt_timer_start)
    rt_timer_stop                            0x08004381   Thumb Code    48  timer.o(i.rt_timer_stop)
    rtthread_startup                         0x080043c1   Thumb Code    42  components.o(i.rtthread_startup)
    sEE_TIMEOUT_UserCallback                 0x080043eb   Thumb Code     4  see_i2c.o(i.sEE_TIMEOUT_UserCallback)
    sEE_WaitEepromStandbyState               0x080043f1   Thumb Code   218  see_i2c.o(i.sEE_WaitEepromStandbyState)
    save_config                              0x080044e1   Thumb Code    72  config_utils.o(i.save_config)
    start_mode                               0x08004529   Thumb Code   208  main.o(i.start_mode)
    tick_ms_init                             0x08004643   Thumb Code    14  time_utils.o(i.tick_ms_init)
    udp_msgSend                              0x080046d9   Thumb Code   194  main.o(i.udp_msgSend)
    usart_init                               0x080047d9   Thumb Code   150  usart_utils.o(i.usart_init)
    usart_read                               0x0800486f   Thumb Code    98  usart_utils.o(i.usart_read)
    usart_write                              0x080048d1   Thumb Code    52  usart_utils.o(i.usart_write)
    wait_OK                                  0x08004905   Thumb Code    54  main.o(i.wait_OK)
    _get_lc_ctype                            0x08004949   Thumb Code    44  lc_ctype_c.o(locale$$code)
    __lowest_bit_bitmap                      0x08004981   Data         256  kservice.o(.constdata)
    __rt_init_rti_start                      0x08004b18   Data           4  components.o(.rti_fn.0)
    __rt_init_rti_board_start                0x08004b1c   Data           4  components.o(.rti_fn.0.end)
    __rt_init_rti_board_end                  0x08004b20   Data           4  components.o(.rti_fn.1.end)
    __rt_init_rti_end                        0x08004b24   Data           4  components.o(.rti_fn.6.end)
    Region$$Table$$Base                      0x08004b28   Number         0  anon$$obj.o(Region$$Table)
    Region$$Table$$Limit                     0x08004b48   Number         0  anon$$obj.o(Region$$Table)
    __ctype                                  0x08004b55   Data           0  lc_ctype_c.o(locale$$data)
    cmdExe                                   0x20000008   Data          48  main.o(.data)
    sEEAddress                               0x20000038   Data           2  see_i2c.o(.data)
    sEETimeout                               0x2000003c   Data           4  see_i2c.o(.data)
    SystemCoreClock                          0x20000048   Data           4  system_stm32f10x.o(.data)
    AHBPrescTable                            0x2000004c   Data          16  system_stm32f10x.o(.data)
    rt_interrupt_from_thread                 0x20000070   Data           4  cpuport.o(.data)
    rt_interrupt_to_thread                   0x20000074   Data           4  cpuport.o(.data)
    rt_thread_switch_interrupt_flag          0x20000078   Data           4  cpuport.o(.data)
    rt_interrupt_nest                        0x20000084   Data           1  irq.o(.data)
    rt_current_thread                        0x20000104   Data           4  scheduler.o(.data)
    rt_current_priority                      0x20000108   Data           1  scheduler.o(.data)
    rt_thread_ready_priority_group           0x2000010c   Data           4  scheduler.o(.data)
    rt_thread_defunct                        0x20000110   Data           8  scheduler.o(.data)
    serial1                                  0x200011c0   Data          84  usart.o(.bss)
    serial3                                  0x20001214   Data          84  usart.o(.bss)
    rt_thread_priority_table                 0x20002400   Data          64  scheduler.o(.bss)
    __libspace_start                         0x20002440   Data          96  libspace.o(.bss)
    __temporary_stack_top$libspace           0x200024a0   Data           0  libspace.o(.bss)



==============================================================================

Memory Map of the image

  Image Entry point : 0x080000ed

  Load Region LR_IROM1 (Base: 0x08000000, Size: 0x00004d7c, Max: 0x00010000, ABSOLUTE)

    Execution Region ER_IROM1 (Exec base: 0x08000000, Load base: 0x08000000, Size: 0x00004c58, Max: 0x00010000, ABSOLUTE)

    Exec Addr    Load Addr    Size         Type   Attr      Idx    E Section Name        Object

    0x08000000   0x08000000   0x000000ec   Data   RO         1182    RESET               startup_stm32f10x_md.o
    0x080000ec   0x080000ec   0x00000008   Code   RO         4121  * !!!main             c_w.l(__main.o)
    0x080000f4   0x080000f4   0x00000034   Code   RO         4313    !!!scatter          c_w.l(__scatter.o)
    0x08000128   0x08000128   0x0000001a   Code   RO         4315    !!handler_copy      c_w.l(__scatter_copy.o)
    0x08000142   0x08000142   0x00000002   PAD
    0x08000144   0x08000144   0x0000001c   Code   RO         4317    !!handler_zi        c_w.l(__scatter_zi.o)
    0x08000160   0x08000160   0x00000000   Code   RO         4100    .ARM.Collect$$_printf_percent$$00000000  c_w.l(_printf_percent.o)
    0x08000160   0x08000160   0x00000006   Code   RO         4099    .ARM.Collect$$_printf_percent$$00000009  c_w.l(_printf_d.o)
    0x08000166   0x08000166   0x00000006   Code   RO         4098    .ARM.Collect$$_printf_percent$$0000000C  c_w.l(_printf_x.o)
    0x0800016c   0x0800016c   0x00000006   Code   RO         4097    .ARM.Collect$$_printf_percent$$00000014  c_w.l(_printf_s.o)
    0x08000172   0x08000172   0x00000004   Code   RO         4134    .ARM.Collect$$_printf_percent$$00000017  c_w.l(_printf_percent_end.o)
    0x08000176   0x08000176   0x00000002   Code   RO         4175    .ARM.Collect$$libinit$$00000000  c_w.l(libinit.o)
    0x08000178   0x08000178   0x00000000   Code   RO         4190    .ARM.Collect$$libinit$$00000002  c_w.l(libinit2.o)
    0x08000178   0x08000178   0x00000000   Code   RO         4192    .ARM.Collect$$libinit$$00000004  c_w.l(libinit2.o)
    0x08000178   0x08000178   0x00000000   Code   RO         4195    .ARM.Collect$$libinit$$0000000A  c_w.l(libinit2.o)
    0x08000178   0x08000178   0x00000000   Code   RO         4197    .ARM.Collect$$libinit$$0000000C  c_w.l(libinit2.o)
    0x08000178   0x08000178   0x00000000   Code   RO         4199    .ARM.Collect$$libinit$$0000000E  c_w.l(libinit2.o)
    0x08000178   0x08000178   0x00000006   Code   RO         4200    .ARM.Collect$$libinit$$0000000F  c_w.l(libinit2.o)
    0x0800017e   0x0800017e   0x00000000   Code   RO         4202    .ARM.Collect$$libinit$$00000011  c_w.l(libinit2.o)
    0x0800017e   0x0800017e   0x0000000c   Code   RO         4203    .ARM.Collect$$libinit$$00000012  c_w.l(libinit2.o)
    0x0800018a   0x0800018a   0x00000000   Code   RO         4204    .ARM.Collect$$libinit$$00000013  c_w.l(libinit2.o)
    0x0800018a   0x0800018a   0x00000000   Code   RO         4206    .ARM.Collect$$libinit$$00000015  c_w.l(libinit2.o)
    0x0800018a   0x0800018a   0x00000000   Code   RO         4208    .ARM.Collect$$libinit$$00000017  c_w.l(libinit2.o)
    0x0800018a   0x0800018a   0x00000000   Code   RO         4210    .ARM.Collect$$libinit$$00000019  c_w.l(libinit2.o)
    0x0800018a   0x0800018a   0x00000000   Code   RO         4212    .ARM.Collect$$libinit$$0000001B  c_w.l(libinit2.o)
    0x0800018a   0x0800018a   0x00000000   Code   RO         4214    .ARM.Collect$$libinit$$0000001D  c_w.l(libinit2.o)
    0x0800018a   0x0800018a   0x00000000   Code   RO         4216    .ARM.Collect$$libinit$$0000001F  c_w.l(libinit2.o)
    0x0800018a   0x0800018a   0x00000000   Code   RO         4218    .ARM.Collect$$libinit$$00000021  c_w.l(libinit2.o)
    0x0800018a   0x0800018a   0x00000000   Code   RO         4220    .ARM.Collect$$libinit$$00000023  c_w.l(libinit2.o)
    0x0800018a   0x0800018a   0x00000000   Code   RO         4222    .ARM.Collect$$libinit$$00000025  c_w.l(libinit2.o)
    0x0800018a   0x0800018a   0x00000000   Code   RO         4226    .ARM.Collect$$libinit$$0000002C  c_w.l(libinit2.o)
    0x0800018a   0x0800018a   0x00000000   Code   RO         4228    .ARM.Collect$$libinit$$0000002E  c_w.l(libinit2.o)
    0x0800018a   0x0800018a   0x00000000   Code   RO         4230    .ARM.Collect$$libinit$$00000030  c_w.l(libinit2.o)
    0x0800018a   0x0800018a   0x00000000   Code   RO         4232    .ARM.Collect$$libinit$$00000032  c_w.l(libinit2.o)
    0x0800018a   0x0800018a   0x00000002   Code   RO         4233    .ARM.Collect$$libinit$$00000033  c_w.l(libinit2.o)
    0x0800018c   0x0800018c   0x00000002   Code   RO         4253    .ARM.Collect$$libshutdown$$00000000  c_w.l(libshutdown.o)
    0x0800018e   0x0800018e   0x00000000   Code   RO         4266    .ARM.Collect$$libshutdown$$00000002  c_w.l(libshutdown2.o)
    0x0800018e   0x0800018e   0x00000000   Code   RO         4268    .ARM.Collect$$libshutdown$$00000004  c_w.l(libshutdown2.o)
    0x0800018e   0x0800018e   0x00000000   Code   RO         4271    .ARM.Collect$$libshutdown$$00000007  c_w.l(libshutdown2.o)
    0x0800018e   0x0800018e   0x00000000   Code   RO         4274    .ARM.Collect$$libshutdown$$0000000A  c_w.l(libshutdown2.o)
    0x0800018e   0x0800018e   0x00000000   Code   RO         4276    .ARM.Collect$$libshutdown$$0000000C  c_w.l(libshutdown2.o)
    0x0800018e   0x0800018e   0x00000000   Code   RO         4279    .ARM.Collect$$libshutdown$$0000000F  c_w.l(libshutdown2.o)
    0x0800018e   0x0800018e   0x00000002   Code   RO         4280    .ARM.Collect$$libshutdown$$00000010  c_w.l(libshutdown2.o)
    0x08000190   0x08000190   0x00000000   Code   RO         4123    .ARM.Collect$$rtentry$$00000000  c_w.l(__rtentry.o)
    0x08000190   0x08000190   0x00000000   Code   RO         4144    .ARM.Collect$$rtentry$$00000002  c_w.l(__rtentry2.o)
    0x08000190   0x08000190   0x00000006   Code   RO         4156    .ARM.Collect$$rtentry$$00000004  c_w.l(__rtentry4.o)
    0x08000196   0x08000196   0x00000000   Code   RO         4146    .ARM.Collect$$rtentry$$00000009  c_w.l(__rtentry2.o)
    0x08000196   0x08000196   0x00000004   Code   RO         4147    .ARM.Collect$$rtentry$$0000000A  c_w.l(__rtentry2.o)
    0x0800019a   0x0800019a   0x00000000   Code   RO         4149    .ARM.Collect$$rtentry$$0000000C  c_w.l(__rtentry2.o)
    0x0800019a   0x0800019a   0x00000008   Code   RO         4150    .ARM.Collect$$rtentry$$0000000D  c_w.l(__rtentry2.o)
    0x080001a2   0x080001a2   0x00000002   Code   RO         4179    .ARM.Collect$$rtexit$$00000000  c_w.l(rtexit.o)
    0x080001a4   0x080001a4   0x00000000   Code   RO         4235    .ARM.Collect$$rtexit$$00000002  c_w.l(rtexit2.o)
    0x080001a4   0x080001a4   0x00000004   Code   RO         4236    .ARM.Collect$$rtexit$$00000003  c_w.l(rtexit2.o)
    0x080001a8   0x080001a8   0x00000006   Code   RO         4237    .ARM.Collect$$rtexit$$00000004  c_w.l(rtexit2.o)
    0x080001ae   0x080001ae   0x00000002   PAD
    0x080001b0   0x080001b0   0x00000040   Code   RO         1183    .text               startup_stm32f10x_md.o
    0x080001f0   0x080001f0   0x000000f0   Code   RO         3000    .text               context_rvds.o
    0x080002e0   0x080002e0   0x00000038   Code   RO         4044    .text               c_w.l(__2snprintf.o)
    0x08000318   0x08000318   0x0000004e   Code   RO         4050    .text               c_w.l(_printf_pad.o)
    0x08000366   0x08000366   0x00000052   Code   RO         4052    .text               c_w.l(_printf_str.o)
    0x080003b8   0x080003b8   0x00000078   Code   RO         4054    .text               c_w.l(_printf_dec.o)
    0x08000430   0x08000430   0x00000058   Code   RO         4059    .text               c_w.l(_printf_hex_int.o)
    0x08000488   0x08000488   0x00000138   Code   RO         4089    .text               c_w.l(__printf_flags_wp.o)
    0x080005c0   0x080005c0   0x0000003c   Code   RO         4101    .text               c_w.l(__0sscanf.o)
    0x080005fc   0x080005fc   0x0000014c   Code   RO         4103    .text               c_w.l(_scanf_int.o)
    0x08000748   0x08000748   0x00000058   Code   RO         4105    .text               c_w.l(memcmp.o)
    0x080007a0   0x080007a0   0x0000003e   Code   RO         4107    .text               c_w.l(strlen.o)
    0x080007de   0x080007de   0x00000014   Code   RO         4109    .text               c_w.l(memchr.o)
    0x080007f2   0x080007f2   0x0000008a   Code   RO         4111    .text               c_w.l(rt_memcpy_v6.o)
    0x0800087c   0x0800087c   0x00000044   Code   RO         4113    .text               c_w.l(rt_memclr.o)
    0x080008c0   0x080008c0   0x0000004e   Code   RO         4115    .text               c_w.l(rt_memclr_w.o)
    0x0800090e   0x0800090e   0x00000002   PAD
    0x08000910   0x08000910   0x00000080   Code   RO         4117    .text               c_w.l(strcmpv7m.o)
    0x08000990   0x08000990   0x00000006   Code   RO         4119    .text               c_w.l(heapauxi.o)
    0x08000996   0x08000996   0x000000b2   Code   RO         4124    .text               c_w.l(_printf_intcommon.o)
    0x08000a48   0x08000a48   0x00000030   Code   RO         4126    .text               c_w.l(_printf_char_common.o)
    0x08000a78   0x08000a78   0x0000000a   Code   RO         4128    .text               c_w.l(_sputc.o)
    0x08000a82   0x08000a82   0x00000010   Code   RO         4130    .text               c_w.l(_snputc.o)
    0x08000a92   0x08000a92   0x0000002c   Code   RO         4132    .text               c_w.l(_printf_char.o)
    0x08000abe   0x08000abe   0x0000001c   Code   RO         4135    .text               c_w.l(_chval.o)
    0x08000ada   0x08000ada   0x00000002   PAD
    0x08000adc   0x08000adc   0x0000002c   Code   RO         4137    .text               c_w.l(scanf_char.o)
    0x08000b08   0x08000b08   0x00000040   Code   RO         4139    .text               c_w.l(_sgetc.o)
    0x08000b48   0x08000b48   0x00000064   Code   RO         4141    .text               c_w.l(rt_memcpy_w.o)
    0x08000bac   0x08000bac   0x00000012   Code   RO         4158    .text               c_w.l(isspace.o)
    0x08000bbe   0x08000bbe   0x00000002   PAD
    0x08000bc0   0x08000bc0   0x00000374   Code   RO         4162    .text               c_w.l(_scanf.o)
    0x08000f34   0x08000f34   0x0000004a   Code   RO         4164    .text               c_w.l(sys_stackheap_outer.o)
    0x08000f7e   0x08000f7e   0x00000002   PAD
    0x08000f80   0x08000f80   0x00000010   Code   RO         4166    .text               c_w.l(rt_ctype_table.o)
    0x08000f90   0x08000f90   0x00000012   Code   RO         4168    .text               c_w.l(exit.o)
    0x08000fa2   0x08000fa2   0x00000002   PAD
    0x08000fa4   0x08000fa4   0x00000008   Code   RO         4176    .text               c_w.l(libspace.o)
    0x08000fac   0x08000fac   0x00000008   Code   RO         4184    .text               c_w.l(rt_locale_intlibspace.o)
    0x08000fb4   0x08000fb4   0x0000000c   Code   RO         4245    .text               c_w.l(sys_exit.o)
    0x08000fc0   0x08000fc0   0x00000002   Code   RO         4256    .text               c_w.l(use_no_semi.o)
    0x08000fc2   0x08000fc2   0x00000000   Code   RO         4258    .text               c_w.l(indicate_semi.o)
    0x08000fc2   0x08000fc2   0x0000000e   Code   RO         3075    i.$Sub$$main        components.o
    0x08000fd0   0x08000fd0   0x00000048   Code   RO            4    i.ATCMD_waitOK      main.o
    0x08001018   0x08001018   0x00000068   Code   RO            5    i.ATDELO_cmd        main.o
    0x08001080   0x08001080   0x000000b0   Code   RO            6    i.ATIMEIBD_cmd      main.o
    0x08001130   0x08001130   0x00000118   Code   RO            7    i.ATIPPORT_cmd      main.o
    0x08001248   0x08001248   0x00000104   Code   RO            8    i.ATRS232_cmd       main.o
    0x0800134c   0x0800134c   0x00000058   Code   RO            9    i.ATSAVE_cmd        main.o
    0x080013a4   0x080013a4   0x000000fc   Code   RO           10    i.ATSEMO_cmd        main.o
    0x080014a0   0x080014a0   0x00000018   Code   RO          959    i.DMA1_Channel3_IRQHandler  usart.o
    0x080014b8   0x080014b8   0x00000018   Code   RO          960    i.DMA1_Channel5_IRQHandler  usart.o
    0x080014d0   0x080014d0   0x0000001c   Code   RO         1284    i.DMA_ClearFlag     stm32f10x_dma.o
    0x080014ec   0x080014ec   0x00000008   Code   RO         1288    i.DMA_GetCurrDataCounter  stm32f10x_dma.o
    0x080014f4   0x080014f4   0x00000058   Code   RO           11    i.EXTI15_10_IRQHandler  main.o
    0x0800154c   0x0800154c   0x0000000c   Code   RO         1369    i.EXTI_ClearITPendingBit  stm32f10x_exti.o
    0x08001558   0x08001558   0x00000028   Code   RO         1373    i.EXTI_GetITStatus  stm32f10x_exti.o
    0x08001580   0x08001580   0x00000094   Code   RO         1374    i.EXTI_Init         stm32f10x_exti.o
    0x08001614   0x08001614   0x000000e0   Code   RO           12    i.GPIO_Configuration  main.o
    0x080016f4   0x080016f4   0x00000040   Code   RO         1437    i.GPIO_EXTILineConfig  stm32f10x_gpio.o
    0x08001734   0x08001734   0x00000116   Code   RO         1440    i.GPIO_Init         stm32f10x_gpio.o
    0x0800184a   0x0800184a   0x00000004   Code   RO         1447    i.GPIO_ResetBits    stm32f10x_gpio.o
    0x0800184e   0x0800184e   0x00000004   Code   RO         1448    i.GPIO_SetBits      stm32f10x_gpio.o
    0x08001852   0x08001852   0x00000018   Code   RO         2747    i.I2C_AcknowledgeConfig  stm32f10x_i2c.o
    0x0800186a   0x0800186a   0x0000002a   Code   RO         2749    i.I2C_CheckEvent    stm32f10x_i2c.o
    0x08001894   0x08001894   0x0000000c   Code   RO         2750    i.I2C_ClearFlag     stm32f10x_i2c.o
    0x080018a0   0x080018a0   0x00000018   Code   RO         2752    i.I2C_Cmd           stm32f10x_i2c.o
    0x080018b8   0x080018b8   0x00000018   Code   RO         2759    i.I2C_GenerateSTART  stm32f10x_i2c.o
    0x080018d0   0x080018d0   0x00000018   Code   RO         2760    i.I2C_GenerateSTOP  stm32f10x_i2c.o
    0x080018e8   0x080018e8   0x0000003a   Code   RO         2761    i.I2C_GetFlagStatus  stm32f10x_i2c.o
    0x08001922   0x08001922   0x00000002   PAD
    0x08001924   0x08001924   0x000000ec   Code   RO         2766    i.I2C_Init          stm32f10x_i2c.o
    0x08001a10   0x08001a10   0x00000008   Code   RO         2771    i.I2C_ReceiveData   stm32f10x_i2c.o
    0x08001a18   0x08001a18   0x00000012   Code   RO         2773    i.I2C_Send7bitAddress  stm32f10x_i2c.o
    0x08001a2a   0x08001a2a   0x00000004   Code   RO         2774    i.I2C_SendData      stm32f10x_i2c.o
    0x08001a2e   0x08001a2e   0x00000002   Code   RO          474    i.IWDG_Feed         time_utils.o
    0x08001a30   0x08001a30   0x00000002   Code   RO          475    i.IWDG_Init         time_utils.o
    0x08001a32   0x08001a32   0x00000002   PAD
    0x08001a34   0x08001a34   0x00000070   Code   RO         1236    i.NVIC_Init         misc.o
    0x08001aa4   0x08001aa4   0x00000014   Code   RO         1237    i.NVIC_PriorityGroupConfig  misc.o
    0x08001ab8   0x08001ab8   0x00000020   Code   RO         1562    i.RCC_APB1PeriphClockCmd  stm32f10x_rcc.o
    0x08001ad8   0x08001ad8   0x00000020   Code   RO         1564    i.RCC_APB2PeriphClockCmd  stm32f10x_rcc.o
    0x08001af8   0x08001af8   0x00000018   Code   RO           14    i.RCC_Configuration  main.o
    0x08001b10   0x08001b10   0x000000d4   Code   RO         1572    i.RCC_GetClocksFreq  stm32f10x_rcc.o
    0x08001be4   0x08001be4   0x00000048   Code   RO           15    i.RST_Configuration  main.o
    0x08001c2c   0x08001c2c   0x0000004c   Code   RO          423    i.SEE_i2c_init      see_i2c.o
    0x08001c78   0x08001c78   0x000001cc   Code   RO          424    i.SEE_i2c_read      see_i2c.o
    0x08001e44   0x08001e44   0x0000012c   Code   RO          425    i.SEE_i2c_write     see_i2c.o
    0x08001f70   0x08001f70   0x00000008   Code   RO         1190    i.SetSysClock       system_stm32f10x.o
    0x08001f78   0x08001f78   0x000000e0   Code   RO         1191    i.SetSysClockTo72   system_stm32f10x.o
    0x08002058   0x08002058   0x00000010   Code   RO         2959    i.SysTick_Handler   board.o
    0x08002068   0x08002068   0x000000a4   Code   RO         1192    i.SystemCoreClockUpdate  system_stm32f10x.o
    0x0800210c   0x0800210c   0x00000060   Code   RO         1193    i.SystemInit        system_stm32f10x.o
    0x0800216c   0x0800216c   0x00000030   Code   RO          476    i.TIM3_IRQHandler   time_utils.o
    0x0800219c   0x0800219c   0x00000060   Code   RO          477    i.TIM3_Int_Init     time_utils.o
    0x080021fc   0x080021fc   0x00000006   Code   RO         2197    i.TIM_ClearITPendingBit  stm32f10x_tim.o
    0x08002202   0x08002202   0x00000018   Code   RO         2202    i.TIM_Cmd           stm32f10x_tim.o
    0x0800221a   0x0800221a   0x00000022   Code   RO         2223    i.TIM_GetITStatus   stm32f10x_tim.o
    0x0800223c   0x0800223c   0x00000012   Code   RO         2227    i.TIM_ITConfig      stm32f10x_tim.o
    0x0800224e   0x0800224e   0x00000002   PAD
    0x08002250   0x08002250   0x000000a4   Code   RO         2273    i.TIM_TimeBaseInit  stm32f10x_tim.o
    0x080022f4   0x080022f4   0x00000018   Code   RO          965    i.USART1_IRQHandler  usart.o
    0x0800230c   0x0800230c   0x00000018   Code   RO          966    i.USART3_IRQHandler  usart.o
    0x08002324   0x08002324   0x0000001e   Code   RO         1929    i.USART_ClearITPendingBit  stm32f10x_usart.o
    0x08002342   0x08002342   0x00000018   Code   RO         1932    i.USART_Cmd         stm32f10x_usart.o
    0x0800235a   0x0800235a   0x0000001a   Code   RO         1935    i.USART_GetFlagStatus  stm32f10x_usart.o
    0x08002374   0x08002374   0x00000054   Code   RO         1936    i.USART_GetITStatus  stm32f10x_usart.o
    0x080023c8   0x080023c8   0x0000004a   Code   RO         1938    i.USART_ITConfig    stm32f10x_usart.o
    0x08002412   0x08002412   0x00000002   PAD
    0x08002414   0x08002414   0x000000d8   Code   RO         1939    i.USART_Init        stm32f10x_usart.o
    0x080024ec   0x080024ec   0x0000000a   Code   RO         1946    i.USART_ReceiveData  stm32f10x_usart.o
    0x080024f6   0x080024f6   0x00000008   Code   RO         1949    i.USART_SendData    stm32f10x_usart.o
    0x080024fe   0x080024fe   0x00000002   PAD
    0x08002500   0x08002500   0x00000064   Code   RO           16    i.USERCOM_direct_BC95COM  main.o
    0x08002564   0x08002564   0x00000030   Code   RO         2960    i._SysTick_Config   board.o
    0x08002594   0x08002594   0x0000004c   Code   RO         3479    i.__rt_ffs          kservice.o
    0x080025e0   0x080025e0   0x00000014   Code   RO         3233    i._has_defunct_thread  idle.o
    0x080025f4   0x080025f4   0x0000000e   Code   RO         4087    i._is_digit         c_w.l(__printf_wp.o)
    0x08002602   0x08002602   0x00000002   PAD
    0x08002604   0x08002604   0x00000084   Code   RO         3820    i._rt_thread_init   thread.o
    0x08002688   0x08002688   0x00000042   Code   RO         3935    i._rt_timer_init    timer.o
    0x080026ca   0x080026ca   0x0000002e   Code   RO         3936    i._rt_timer_remove  timer.o
    0x080026f8   0x080026f8   0x0000003c   Code   RO          872    i._serial_fifo_calc_recved_len  serial.o
    0x08002734   0x08002734   0x00000084   Code   RO           17    i.bc95_cfgBaudRate  main.o
    0x080027b8   0x080027b8   0x00000074   Code   RO          578    i.checkConfigIPORT  utils.o
    0x0800282c   0x0800282c   0x00000094   Code   RO          579    i.checkConfigRS232  utils.o
    0x080028c0   0x080028c0   0x000000ac   Code   RO           18    i.coap_msgSend      main.o
    0x0800296c   0x0800296c   0x0000015c   Code   RO           19    i.config_bc95       main.o
    0x08002ac8   0x08002ac8   0x00000008   Code   RO          343    i.config_init       config_utils.o
    0x08002ad0   0x08002ad0   0x0000002a   Code   RO          478    i.delay_ms          time_utils.o
    0x08002afa   0x08002afa   0x00000036   Code   RO          967    i.dma_rx_done_isr   usart.o
    0x08002b30   0x08002b30   0x00000042   Code   RO          968    i.dma_uart_rx_idle_isr  usart.o
    0x08002b72   0x08002b72   0x00000002   PAD
    0x08002b74   0x08002b74   0x00000088   Code   RO           20    i.get_IMEI          main.o
    0x08002bfc   0x08002bfc   0x00000088   Code   RO           21    i.get_NBAND         main.o
    0x08002c84   0x08002c84   0x00000038   Code   RO          389    i.get_crc32         crc32.o
    0x08002cbc   0x08002cbc   0x0000000c   Code   RO          479    i.get_timestamp     time_utils.o
    0x08002cc8   0x08002cc8   0x00000134   Code   RO           22    i.ghConfig          main.o
    0x08002dfc   0x08002dfc   0x00000038   Code   RO          390    i.init_crc32_tab    crc32.o
    0x08002e34   0x08002e34   0x00000024   Code   RO           23    i.load_config       main.o
    0x08002e58   0x08002e58   0x00000038   Code   RO           24    i.main              main.o
    0x08002e90   0x08002e90   0x00000118   Code   RO           25    i.main_entry        main.o
    0x08002fa8   0x08002fa8   0x0000000e   Code   RO         3076    i.main_thread_entry  components.o
    0x08002fb6   0x08002fb6   0x00000060   Code   RO          580    i.memmem            utils.o
    0x08003016   0x08003016   0x00000002   PAD
    0x08003018   0x08003018   0x00000078   Code   RO         3637    i.plug_holes        mem.o
    0x08003090   0x08003090   0x00000054   Code   RO          344    i.read_config       config_utils.o
    0x080030e4   0x080030e4   0x0000002c   Code   RO         3077    i.rt_application_init  components.o
    0x08003110   0x08003110   0x00000048   Code   RO          611    i.rt_completion_done  completion.o
    0x08003158   0x08003158   0x0000001c   Code   RO         3078    i.rt_components_board_init  components.o
    0x08003174   0x08003174   0x0000001c   Code   RO         3079    i.rt_components_init  components.o
    0x08003190   0x08003190   0x0000005a   Code   RO          675    i.rt_data_queue_peak  dataqueue.o
    0x080031ea   0x080031ea   0x00000106   Code   RO          676    i.rt_data_queue_pop  dataqueue.o
    0x080032f0   0x080032f0   0x0000000c   Code   RO          874    i.rt_dma_calc_recved_len  serial.o
    0x080032fc   0x080032fc   0x0000008a   Code   RO          876    i.rt_dma_recv_update_put_index  serial.o
    0x08003386   0x08003386   0x00000002   PAD
    0x08003388   0x08003388   0x00000020   Code   RO         3757    i.rt_enter_critical  scheduler.o
    0x080033a8   0x080033a8   0x0000003c   Code   RO         3758    i.rt_exit_critical  scheduler.o
    0x080033e4   0x080033e4   0x00000078   Code   RO         3639    i.rt_free           mem.o
    0x0800345c   0x0800345c   0x00000008   Code   RO         2961    i.rt_heap_begin_get  board.o
    0x08003464   0x08003464   0x00000008   Code   RO         2962    i.rt_heap_end_get   board.o
    0x0800346c   0x0800346c   0x00000034   Code   RO         2963    i.rt_hw_board_init  board.o
    0x080034a0   0x080034a0   0x00000024   Code   RO         3006    i.rt_hw_hard_fault_exception  cpuport.o
    0x080034c4   0x080034c4   0x00000154   Code   RO          877    i.rt_hw_serial_isr  serial.o
    0x08003618   0x08003618   0x0000004c   Code   RO         3007    i.rt_hw_stack_init  cpuport.o
    0x08003664   0x08003664   0x00000020   Code   RO         3452    i.rt_interrupt_enter  irq.o
    0x08003684   0x08003684   0x00000020   Code   RO         3454    i.rt_interrupt_leave  irq.o
    0x080036a4   0x080036a4   0x00000014   Code   RO         3273    i.rt_ipc_list_resume  ipc.o
    0x080036b8   0x080036b8   0x0000006c   Code   RO         3275    i.rt_ipc_list_suspend  ipc.o
    0x08003724   0x08003724   0x00000010   Code   RO         3276    i.rt_ipc_object_init  ipc.o
    0x08003734   0x08003734   0x00000006   Code   RO         3277    i.rt_list_init      ipc.o
    0x0800373a   0x0800373a   0x00000006   Code   RO         3759    i.rt_list_init      scheduler.o
    0x08003740   0x08003740   0x00000006   Code   RO         3937    i.rt_list_init      timer.o
    0x08003746   0x08003746   0x0000000e   Code   RO         3687    i.rt_list_insert_after  object.o
    0x08003754   0x08003754   0x0000000e   Code   RO         3821    i.rt_list_insert_after  thread.o
    0x08003762   0x08003762   0x0000000e   Code   RO         3938    i.rt_list_insert_after  timer.o
    0x08003770   0x08003770   0x0000000e   Code   RO          680    i.rt_list_insert_before  dataqueue.o
    0x0800377e   0x0800377e   0x0000000e   Code   RO         3278    i.rt_list_insert_before  ipc.o
    0x0800378c   0x0800378c   0x00000010   Code   RO          681    i.rt_list_isempty   dataqueue.o
    0x0800379c   0x0800379c   0x00000010   Code   RO         3279    i.rt_list_isempty   ipc.o
    0x080037ac   0x080037ac   0x00000010   Code   RO         3939    i.rt_list_isempty   timer.o
    0x080037bc   0x080037bc   0x00000012   Code   RO         3688    i.rt_list_remove    object.o
    0x080037ce   0x080037ce   0x00000012   Code   RO         3822    i.rt_list_remove    thread.o
    0x080037e0   0x080037e0   0x0000016c   Code   RO         3640    i.rt_malloc         mem.o
    0x0800394c   0x0800394c   0x00000048   Code   RO         3488    i.rt_memset         kservice.o
    0x08003994   0x08003994   0x0000004a   Code   RO         3689    i.rt_object_allocate  object.o
    0x080039de   0x080039de   0x00000020   Code   RO         3690    i.rt_object_delete  object.o
    0x080039fe   0x080039fe   0x0000001a   Code   RO         3691    i.rt_object_detach  object.o
    0x08003a18   0x08003a18   0x00000028   Code   RO         3693    i.rt_object_get_information  object.o
    0x08003a40   0x08003a40   0x0000003c   Code   RO         3694    i.rt_object_init    object.o
    0x08003a7c   0x08003a7c   0x00000012   Code   RO         3695    i.rt_object_is_systemobject  object.o
    0x08003a8e   0x08003a8e   0x00000002   PAD
    0x08003a90   0x08003a90   0x00000090   Code   RO         3760    i.rt_schedule       scheduler.o
    0x08003b20   0x08003b20   0x00000050   Code   RO         3761    i.rt_schedule_insert_thread  scheduler.o
    0x08003b70   0x08003b70   0x00000054   Code   RO         3762    i.rt_schedule_remove_thread  scheduler.o
    0x08003bc4   0x08003bc4   0x00000026   Code   RO         3299    i.rt_sem_init       ipc.o
    0x08003bea   0x08003bea   0x0000003a   Code   RO         3300    i.rt_sem_release    ipc.o
    0x08003c24   0x08003c24   0x00000074   Code   RO         3301    i.rt_sem_take       ipc.o
    0x08003c98   0x08003c98   0x00000002   Code   RO         3490    i.rt_show_version   kservice.o
    0x08003c9a   0x08003c9a   0x00000034   Code   RO         3498    i.rt_strncpy        kservice.o
    0x08003cce   0x08003cce   0x00000002   PAD
    0x08003cd0   0x08003cd0   0x000000b0   Code   RO         3643    i.rt_system_heap_init  mem.o
    0x08003d80   0x08003d80   0x0000004c   Code   RO         3763    i.rt_system_scheduler_init  scheduler.o
    0x08003dcc   0x08003dcc   0x00000030   Code   RO         3764    i.rt_system_scheduler_start  scheduler.o
    0x08003dfc   0x08003dfc   0x0000001c   Code   RO         3940    i.rt_system_timer_init  timer.o
    0x08003e18   0x08003e18   0x00000002   Code   RO         3941    i.rt_system_timer_thread_init  timer.o
    0x08003e1a   0x08003e1a   0x00000050   Code   RO         3824    i.rt_thread_create  thread.o
    0x08003e6a   0x08003e6a   0x0000000c   Code   RO         3825    i.rt_thread_delay   thread.o
    0x08003e76   0x08003e76   0x00000002   PAD
    0x08003e78   0x08003e78   0x00000054   Code   RO         3828    i.rt_thread_exit    thread.o
    0x08003ecc   0x08003ecc   0x00000008   Code   RO         3234    i.rt_thread_idle_entry  idle.o
    0x08003ed4   0x08003ed4   0x00000084   Code   RO         3235    i.rt_thread_idle_excute  idle.o
    0x08003f58   0x08003f58   0x0000003c   Code   RO         3237    i.rt_thread_idle_init  idle.o
    0x08003f94   0x08003f94   0x00000034   Code   RO         3830    i.rt_thread_init    thread.o
    0x08003fc8   0x08003fc8   0x0000003c   Code   RO         3831    i.rt_thread_resume  thread.o
    0x08004004   0x08004004   0x0000000c   Code   RO         3832    i.rt_thread_self    thread.o
    0x08004010   0x08004010   0x00000044   Code   RO         3833    i.rt_thread_sleep   thread.o
    0x08004054   0x08004054   0x0000002c   Code   RO         3834    i.rt_thread_startup  thread.o
    0x08004080   0x08004080   0x00000044   Code   RO         3835    i.rt_thread_suspend  thread.o
    0x080040c4   0x080040c4   0x00000020   Code   RO         3836    i.rt_thread_timeout  thread.o
    0x080040e4   0x080040e4   0x00000064   Code   RO         3837    i.rt_thread_yield   thread.o
    0x08004148   0x08004148   0x0000000c   Code   RO         3039    i.rt_tick_get       clock.o
    0x08004154   0x08004154   0x00000030   Code   RO         3040    i.rt_tick_increase  clock.o
    0x08004184   0x08004184   0x0000007c   Code   RO         3942    i.rt_timer_check    timer.o
    0x08004200   0x08004200   0x00000038   Code   RO         3943    i.rt_timer_control  timer.o
    0x08004238   0x08004238   0x00000020   Code   RO         3946    i.rt_timer_detach   timer.o
    0x08004258   0x08004258   0x0000002e   Code   RO         3947    i.rt_timer_init     timer.o
    0x08004286   0x08004286   0x00000002   PAD
    0x08004288   0x08004288   0x000000f8   Code   RO         3950    i.rt_timer_start    timer.o
    0x08004380   0x08004380   0x00000030   Code   RO         3951    i.rt_timer_stop     timer.o
    0x080043b0   0x080043b0   0x00000004   Code   RO         3080    i.rti_board_end     components.o
    0x080043b4   0x080043b4   0x00000004   Code   RO         3081    i.rti_board_start   components.o
    0x080043b8   0x080043b8   0x00000004   Code   RO         3082    i.rti_end           components.o
    0x080043bc   0x080043bc   0x00000004   Code   RO         3083    i.rti_start         components.o
    0x080043c0   0x080043c0   0x0000002a   Code   RO         3084    i.rtthread_startup  components.o
    0x080043ea   0x080043ea   0x00000004   Code   RO          426    i.sEE_TIMEOUT_UserCallback  see_i2c.o
    0x080043ee   0x080043ee   0x00000002   PAD
    0x080043f0   0x080043f0   0x000000f0   Code   RO          427    i.sEE_WaitEepromStandbyState  see_i2c.o
    0x080044e0   0x080044e0   0x00000048   Code   RO          345    i.save_config       config_utils.o
    0x08004528   0x08004528   0x00000100   Code   RO           26    i.start_mode        main.o
    0x08004628   0x08004628   0x0000001a   Code   RO          972    i.stm32_getc        usart.o
    0x08004642   0x08004642   0x0000000e   Code   RO          481    i.tick_ms_init      time_utils.o
    0x08004650   0x08004650   0x00000086   Code   RO          974    i.uart_isr          usart.o
    0x080046d6   0x080046d6   0x00000002   PAD
    0x080046d8   0x080046d8   0x00000100   Code   RO           27    i.udp_msgSend       main.o
    0x080047d8   0x080047d8   0x00000096   Code   RO          542    i.usart_init        usart_utils.o
    0x0800486e   0x0800486e   0x00000062   Code   RO          543    i.usart_read        usart_utils.o
    0x080048d0   0x080048d0   0x00000034   Code   RO          544    i.usart_write       usart_utils.o
    0x08004904   0x08004904   0x00000044   Code   RO           28    i.wait_OK           main.o
    0x08004948   0x08004948   0x0000002c   Code   RO         4187    locale$$code        c_w.l(lc_ctype_c.o)
    0x08004974   0x08004974   0x0000000d   Data   RO           30    .constdata          main.o
    0x08004981   0x08004981   0x00000122   Data   RO         3504    .constdata          kservice.o
    0x08004aa3   0x08004aa3   0x00000028   Data   RO         4060    .constdata          c_w.l(_printf_hex_int.o)
    0x08004acb   0x08004acb   0x00000011   Data   RO         4090    .constdata          c_w.l(__printf_flags_wp.o)
    0x08004adc   0x08004adc   0x0000003a   Data   RO           31    .conststring        main.o
    0x08004b16   0x08004b16   0x00000002   PAD
    0x08004b18   0x08004b18   0x00000004   Data   RO         3085    .rti_fn.0           components.o
    0x08004b1c   0x08004b1c   0x00000004   Data   RO         3086    .rti_fn.0.end       components.o
    0x08004b20   0x08004b20   0x00000004   Data   RO         3087    .rti_fn.1.end       components.o
    0x08004b24   0x08004b24   0x00000004   Data   RO         3088    .rti_fn.6.end       components.o
    0x08004b28   0x08004b28   0x00000020   Data   RO         4311    Region$$Table       anon$$obj.o
    0x08004b48   0x08004b48   0x00000110   Data   RO         4186    locale$$data        c_w.l(lc_ctype_c.o)


    Execution Region RW_IRAM1 (Exec base: 0x20000000, Load base: 0x08004c58, Size: 0x00002aa0, Max: 0x00005000, ABSOLUTE)

    Exec Addr    Load Addr    Size         Type   Attr      Idx    E Section Name        Object

    0x20000000   0x08004c58   0x00000038   Data   RW           32    .data               main.o
    0x20000038   0x08004c90   0x00000008   Data   RW          428    .data               see_i2c.o
    0x20000040   0x08004c98   0x00000008   Data   RW          482    .data               time_utils.o
    0x20000048   0x08004ca0   0x00000014   Data   RW         1194    .data               system_stm32f10x.o
    0x2000005c   0x08004cb4   0x00000014   Data   RW         1592    .data               stm32f10x_rcc.o
    0x20000070   0x08004cc8   0x00000010   Data   RW         3008    .data               cpuport.o
    0x20000080   0x08004cd8   0x00000004   Data   RW         3042    .data               clock.o
    0x20000084   0x08004cdc   0x00000001   Data   RW         3455    .data               irq.o
    0x20000085   0x08004cdd   0x00000003   PAD
    0x20000088   0x08004ce0   0x00000018   Data   RW         3645    .data               mem.o
    0x200000a0   0x08004cf8   0x00000060   Data   RW         3697    .data               object.o
    0x20000100   0x08004d58   0x00000018   Data   RW         3766    .data               scheduler.o
    0x20000118   0x08004d70   0x0000000c   Data   RW         3952    .data               timer.o
    0x20000124        -       0x00000c9c   Zero   RW           29    .bss                main.o
    0x20000dc0        -       0x00000400   Zero   RW          391    .bss                crc32.o
    0x200011c0        -       0x000000a8   Zero   RW          975    .bss                usart.o
    0x20001268        -       0x00001000   Zero   RW         2964    .bss                board.o
    0x20002268        -       0x00000178   Zero   RW         3238    .bss                idle.o
    0x200023e0        -       0x00000020   Zero   RW         3644    .bss                mem.o
    0x20002400        -       0x00000040   Zero   RW         3765    .bss                scheduler.o
    0x20002440        -       0x00000060   Zero   RW         4177    .bss                c_w.l(libspace.o)
    0x200024a0        -       0x00000200   Zero   RW         1181    HEAP                startup_stm32f10x_md.o
    0x200026a0        -       0x00000400   Zero   RW         1180    STACK               startup_stm32f10x_md.o


==============================================================================

Image component sizes


      Code (inc. data)   RO Data    RW Data    ZI Data      Debug   Object Name

       132         16          0          0       4096       3125   board.o
        60         12          0          4          0       1121   clock.o
        72          0          0          0          0       6637   completion.o
       186         28         16          0          0       5580   components.o
       164          0          0          0          0       3530   config_utils.o
       240         26          0          0          0        828   context_rvds.o
       112         10          0         16          0       3082   cpuport.o
       112         16          0          0       1024       1552   crc32.o
       382          0          0          0          0       5877   dataqueue.o
       220         30          0          0        376       4946   idle.o
       392          0          0          0          0       5569   ipc.o
        64         12          0          1          0       1526   irq.o
       202          6        290          0          0       5184   kservice.o
      3924        862         71         56       3228     298058   main.o
       780         92          0         24         32       3776   mem.o
       132         22          0          0          0       1691   misc.o
       282          4          0         96          0       7504   object.o
       530         88          0         24         64       5754   scheduler.o
      1080         80          0          8          0       3818   see_i2c.o
       550          0          0          0          0       3835   serial.o
        64         26        236          0       1536        816   startup_stm32f10x_md.o
        36         10          0          0          0       2849   stm32f10x_dma.o
       200         18          0          0          0       2292   stm32f10x_exti.o
       350          4          0          0          0       3870   stm32f10x_gpio.o
       474         14          0          0          0       8728   stm32f10x_i2c.o
       276         32          0         20          0       4606   stm32f10x_rcc.o
       246         42          0          0          0       3810   stm32f10x_tim.o
       472          6          0          0          0       7159   stm32f10x_usart.o
       492         50          0         20          0       2893   system_stm32f10x.o
       776         36          0          0          0      11079   thread.o
       216         18          0          8          0       3916   time_utils.o
       732         20          0         12          0      10372   timer.o
       376         24          0          0        168       5072   usart.o
       300          0          0          0          0       2668   usart_utils.o
       360         30          0          0          0       2927   utils.o
         0          0          0          0          0       2036   waitqueue.o

    ----------------------------------------------------------------------
     15014       1634        647        292      10524     448086   Object Totals
         0          0         32          0          0          0   (incl. Generated)
        28          0          2          3          0          0   (incl. Padding)

    ----------------------------------------------------------------------

      Code (inc. data)   RO Data    RW Data    ZI Data      Debug   Library Member Name

        60          8          0          0          0         84   __0sscanf.o
        56          6          0          0          0         88   __2snprintf.o
         8          0          0          0          0         68   __main.o
       312          4         17          0          0         92   __printf_flags_wp.o
        14          0          0          0          0         68   __printf_wp.o
         0          0          0          0          0          0   __rtentry.o
        12          0          0          0          0          0   __rtentry2.o
         6          0          0          0          0          0   __rtentry4.o
        52          8          0          0          0          0   __scatter.o
        26          0          0          0          0          0   __scatter_copy.o
        28          0          0          0          0          0   __scatter_zi.o
        28          0          0          0          0         68   _chval.o
        44          0          0          0          0        108   _printf_char.o
        48          6          0          0          0         96   _printf_char_common.o
         6          0          0          0          0          0   _printf_d.o
       120         16          0          0          0         92   _printf_dec.o
        88          4         40          0          0         88   _printf_hex_int.o
       178          0          0          0          0         88   _printf_intcommon.o
        78          0          0          0          0        108   _printf_pad.o
         0          0          0          0          0          0   _printf_percent.o
         4          0          0          0          0          0   _printf_percent_end.o
         6          0          0          0          0          0   _printf_s.o
        82          0          0          0          0         80   _printf_str.o
         6          0          0          0          0          0   _printf_x.o
       884          6          0          0          0        100   _scanf.o
       332          0          0          0          0         96   _scanf_int.o
        64          0          0          0          0         84   _sgetc.o
        16          0          0          0          0         68   _snputc.o
        10          0          0          0          0         68   _sputc.o
        18          0          0          0          0         80   exit.o
         6          0          0          0          0        152   heapauxi.o
         0          0          0          0          0          0   indicate_semi.o
        18          0          0          0          0         76   isspace.o
        44         10        272          0          0         76   lc_ctype_c.o
         2          0          0          0          0          0   libinit.o
        20          0          0          0          0          0   libinit2.o
         2          0          0          0          0          0   libshutdown.o
         2          0          0          0          0          0   libshutdown2.o
         8          4          0          0         96         68   libspace.o
        20          0          0          0          0         68   memchr.o
        88          0          0          0          0         76   memcmp.o
        16          4          0          0          0         76   rt_ctype_table.o
         8          4          0          0          0         68   rt_locale_intlibspace.o
        68          0          0          0          0         68   rt_memclr.o
        78          0          0          0          0         80   rt_memclr_w.o
       138          0          0          0          0         68   rt_memcpy_v6.o
       100          0          0          0          0         80   rt_memcpy_w.o
         2          0          0          0          0          0   rtexit.o
        10          0          0          0          0          0   rtexit2.o
        44          8          0          0          0         84   scanf_char.o
       128          0          0          0          0         68   strcmpv7m.o
        62          0          0          0          0         76   strlen.o
        12          4          0          0          0         68   sys_exit.o
        74          0          0          0          0         80   sys_stackheap_outer.o
         2          0          0          0          0         68   use_no_semi.o

    ----------------------------------------------------------------------
      3554         92        329          0         96       3024   Library Totals
        16          0          0          0          0          0   (incl. Padding)

    ----------------------------------------------------------------------

      Code (inc. data)   RO Data    RW Data    ZI Data      Debug   Library Name

      3538         92        329          0         96       3024   c_w.l

    ----------------------------------------------------------------------
      3554         92        329          0         96       3024   Library Totals

    ----------------------------------------------------------------------

==============================================================================


      Code (inc. data)   RO Data    RW Data    ZI Data      Debug   

     18568       1726        976        292      10620     439666   Grand Totals
     18568       1726        976        292      10620     439666   ELF Image Totals
     18568       1726        976        292          0          0   ROM Totals

==============================================================================

    Total RO  Size (Code + RO Data)                19544 (  19.09kB)
    Total RW  Size (RW Data + ZI Data)             10912 (  10.66kB)
    Total ROM Size (Code + RO Data + RW Data)      19836 (  19.37kB)

==============================================================================

